(dp0
S'14804'
p1
(dp2
S'Line Number'
p3
g1
sS'TIF'
p4
S'images/14804_6dpf_MeanImageOf36Fish.tif'
p5
sS'Annotations'
p6
(lp7
S'Posterior Lateral Line Ganglion'
p8
aS'Anterior Lateral Line Ganglion'
p9
aS'Vagal Ganglia'
p10
aS'Rhombencephalon- Neuropil Region 4'
p11
aS'Rhombencephalon-Interpeduncular Nucleus'
p12
aS'Diencephalon-Habenula'
p13
asS'JPEG'
p14
S'images/MAX_14804_6dpf_MeanImageOf36Fish.jpg'
p15
ssS'14543'
p16
(dp17
g3
g16
sg4
S'images/14543_6dpf_MeanImageOf10Fish.tif'
p18
sg6
(lp19
S'Mesencephalon-Tegmentum'
p20
aS'Diancephelon-Habenula'
p21
aS'Rhombencephalon-Rhombhomere 7'
p22
asg14
S'images/MAX_14543_6dpf_MeanImageOf10Fish.jpg'
p23
ssS'13319'
p24
(dp25
g3
g24
sg4
S'images/13319_6dpf_MeanImageOf10Fish.tif'
p26
sg6
(lp27
S'Anterior Lateral Line Ganglion'
p28
aS'Diencephalon-Habenula'
p29
aS'Diencephalon'
p30
aS'Diencephalon-Anterior Pretectum Cluster of Vmat2 Neurons'
p31
asg14
S'images/MAX_13319_6dpf_MeanImageOf10Fish.jpg'
p32
ssS'14805'
p33
(dp34
g3
g33
sg4
S'images/14805_6dpf_MeanImageOf37Fish.tif'
p35
sg6
(lp36
S'Ganglia-Olfactory Epithelium'
p37
aS'Telencephalon'
p38
aS'Telencephalon-Olfactory Bulb'
p39
aS'Mesencephalon-Tectum Stratum Periventriculare'
p40
aS'Mesencephalon-Vglut 2 cluster 1'
p41
aS'Mesencephalon-Tegmentum'
p42
aS'Diencephalon-Pretectum'
p43
asg14
S'images/MAX_14805_6dpf_MeanImageOf37Fish.jpg'
p44
ss.