(dp0
S'20638'
p1
(dp2
S'Line Number'
p3
g1
sS'TIF'
p4
S'images/20638_6dpf_MeanImageOf11Fish.tif'
p5
sS'Annotations'
p6
(lp7
sS'JPEG'
p8
S'images/MAX_20638_6dpf_MeanImageOf11Fish.jpg'
p9
ssS'20639'
p10
(dp11
g3
g10
sg4
S'images/20639_6dpf_MeanImageOf4Fish.tif'
p12
sg6
(lp13
sg8
S'images/MAX_20639_6dpf_MeanImageOf4Fish.jpg'
p14
ssS'17776'
p15
(dp16
g3
g15
sg4
S'images/17776_6dpf_MeanImageOf5Fish.tif'
p17
sg6
(lp18
S'Ganglia-Lateral Line Neuromast N'
p19
aS'Telencephalon'
p20
aS'Telencephalon-Subpallium'
p21
aS'Rhombencephalon'
p22
aS'Rhombencephalon-Rhombomere 7'
p23
asg8
S'images/MAX_17776_6dpf_MeanImageOf5Fish.jpg'
p24
ssS'17768'
p25
(dp26
g3
g25
sg4
S'images/17768_6dpf_MeanImageOf9Fish.tif'
p27
sg6
(lp28
S'Diencephalon'
p29
aS'Diencephalon-Habenula'
p30
aS'Rhombencephalon'
p31
aS'Rhombencephalon-Olig2 enriched areas in cerebellum'
p32
aS'Rhombencephalon-Cerbellum'
p33
aS'Ganglia-Anterior Lateral Line Ganglia'
p34
aS'Ganglia-Vagal Ganglia'
p35
asg8
S'images/MAX_17768_6dpf_MeanImageOf9Fish.jpg'
p36
ssS'20552'
p37
(dp38
g3
g37
sg4
S'images/20552_6dpf_MeanImageOf11Fish.tif'
p39
sg6
(lp40
sg8
S'images/MAX_20552_6dpf_MeanImageOf11Fish.jpg'
p41
ssS'20636'
p42
(dp43
g3
g42
sg4
S'images/20636_6dpf_MeanImageOf9Fish.tif'
p44
sg6
(lp45
sg8
S'images/MAX_20636_6dpf_MeanImageOf9Fish.jpg'
p46
ssS'16946'
p47
(dp48
g3
g47
sg4
S'images/16946_6dpf_MeanImageOf5Fish.tif'
p49
sg6
(lp50
S'Diencephalon'
p51
aS'Diencephalon-Habenula'
p52
aS'Mesencephalon'
p53
aS'Mesencephalon-Retinal Arborization Field 9 (AF9)'
p54
aS'Rhombencephalon'
p55
aS'Rhombencephalon-Rhombomere 7'
p56
asg8
S'images/MAX_16946_6dpf_MeanImageOf5Fish.jpg'
p57
ssS'15577'
p58
(dp59
g3
g58
sg4
S'images/15577_6dpf_MeanImageOf11Fish.tif'
p60
sg6
(lp61
S'Rhombencephalon'
p62
aS'Rhombencephalon-X Vagus motorneuron cluster'
p63
aS'Diencephalon'
p64
aS'Mesencephalon'
p65
aS'Ganglia-Lateral Line Neuromast 01'
p66
asg8
S'images/MAX_15577_6dpf_MeanImageOf11Fish.jpg'
p67
ssS'15576'
p68
(dp69
g3
g68
sg4
S'images/15576_6dpf_MeanImageOf7Fish.tif'
p70
sg6
(lp71
S'Diencephalon'
p72
aS'Diencephalon-Habenula'
p73
aS'Mesencephalon-Vglut2 cluster 1'
p74
aS'Telencephalon'
p75
aS'Rhombencephalon'
p76
aS'Neuropil Region 5'
p77
aS'Rhombencephalon'
p78
aS'6.7FDhcrtR-Gal4 Stripe 1'
p79
asg8
S'images/MAX_15576_6dpf_MeanImageOf7Fish.jpg'
p80
ssS'20654'
p81
(dp82
g3
g81
sg4
S'images/20654_6dpf_MeanImageOf9Fish.tif'
p83
sg6
(lp84
sg8
S'images/MAX_20654_6dpf_MeanImageOf9Fish.jpg'
p85
ssS'20655'
p86
(dp87
g3
g86
sg4
S'images/20655_6dpf_MeanImageOf14Fish.tif'
p88
sg6
(lp89
sg8
S'images/MAX_20655_6dpf_MeanImageOf14Fish.jpg'
p90
ssS'20652'
p91
(dp92
g3
g91
sg4
S'images/20652_6dpf_MeanImageOf4Fish.tif'
p93
sg6
(lp94
sg8
S'images/MAX_20652_6dpf_MeanImageOf4Fish.jpg'
p95
ssS'20661'
p96
(dp97
g3
g96
sg4
S'images/20661_6dpf_MeanImageOf7Fish.tif'
p98
sg6
(lp99
sg8
S'images/MAX_20661_6dpf_MeanImageOf7Fish.jpg'
p100
ssS'20660'
p101
(dp102
g3
g101
sg4
S'images/20660_6dpf_MeanImageOf6Fish.tif'
p103
sg6
(lp104
sg8
S'images/MAX_20660_6dpf_MeanImageOf6Fish.jpg'
p105
ssS'17845'
p106
(dp107
g3
g106
sg4
S'images/17845_6dpf_MeanImageOf13Fish.tif'
p108
sg6
(lp109
S'Diencephalon'
p110
aS'Diencephalon-Habenula'
p111
aS'Rhombencephalon'
p112
asg8
S'images/MAX_17845_6dpf_MeanImageOf13Fish.jpg'
p113
ssS'17846'
p114
(dp115
g3
g114
sg4
S'images/17846_6dpf_MeanImageOf5Fish.tif'
p116
sg6
(lp117
S'Diencephalon'
p118
aS'Diencephalon-Habenula'
p119
aS'Mesencephalon'
p120
asg8
S'images/MAX_17846_6dpf_MeanImageOf5Fish.jpg'
p121
ssS'20640'
p122
(dp123
g3
g122
sg4
S'images/20640_6dpf_MeanImageOf9Fish.tif'
p124
sg6
(lp125
sg8
S'images/MAX_20640_6dpf_MeanImageOf9Fish.jpg'
p126
ssS'19322'
p127
(dp128
g3
g127
sg4
S'images/19322_6dpf_MeanImageOf9Fish.tif'
p129
sg6
(lp130
sg8
S'images/MAX_19322_6dpf_MeanImageOf9Fish.jpg'
p131
ssS'20643'
p132
(dp133
g3
g132
sg4
S'images/20643_6dpf_MeanImageOf12Fish.tif'
p134
sg6
(lp135
sg8
S'images/MAX_20643_6dpf_MeanImageOf12Fish.jpg'
p136
ssS'17777'
p137
(dp138
g3
g137
sg4
S'images/17777_6dpf_MeanImageOf7Fish.tif'
p139
sg6
(lp140
S'Ganglia-Posterior Lateral Line Ganglia'
p141
aS'Ganglia-Lateral Line Neuromast N'
p142
aS'Ganglia-Anterior Lateral Line Ganglia'
p143
aS'Diencephalon-Habenula'
p144
aS'Mesencephalon'
p145
asg8
S'images/MAX_17777_6dpf_MeanImageOf7Fish.jpg'
p146
ssS'15639'
p147
(dp148
g3
g147
sg4
S'images/15639_6dpf_MeanImageOf4Fish.tif'
p149
sg6
(lp150
S'Diencephalon-Habenula'
p151
asg8
S'images/MAX_15639_6dpf_MeanImageOf4Fish.jpg'
p152
ssS'16659'
p153
(dp154
g3
g153
sg4
S'images/16659_6dpf_MeanImageOf6Fish.tif'
p155
sg6
(lp156
S'Ganglia-Posterior Lateral Line Ganglia'
p157
aS'Diencephalon'
p158
aS'Diencephalon-Habenula'
p159
aS'Rhombencephalon-Neuropil Region 4'
p160
aS'Rhombencephalon-Interpeduncular Nucleus'
p161
asg8
S'images/MAX_16659_6dpf_MeanImageOf6Fish.jpg'
p162
ssS'15635'
p163
(dp164
g3
g163
sg4
S'images/15635_6dpf_MeanImageOf5Fish.tif'
p165
sg6
(lp166
S'Telencephalon-Subpallium'
p167
aS'Telencephalon-Subpallial Dopaminergic Cluster'
p168
aS'Diencephalon-Dorsal Thalamus'
p169
aS'Mesencephalon-Tectal Neuropil'
p170
aS'Ganglia-Eyes'
p171
aS'Ganglia-Trigemina'
p172
asg8
S'images/MAX_15635_6dpf_MeanImageOf5Fish.jpg'
p173
ssS'17056'
p174
(dp175
g3
g174
sg4
S'images/17056_6dpf_MeanImageOf5Fish.tif'
p176
sg6
(lp177
S'Telencephalon'
p178
aS'Telencephalon-Subpallium'
p179
aS'Rhombencephalon-Interpeduncular Nucleus'
p180
aS'Ganglia-Olfactory Epithelium'
p181
aS'Ganglia-Anterior Lateral Line Ganglia'
p182
aS'Mesencephalon'
p183
asg8
S'images/MAX_17056_6dpf_MeanImageOf5Fish.jpg'
p184
ssS'18107'
p185
(dp186
g3
g185
sg4
S'images/18107_6dpf_MeanImageOf10Fish.tif'
p187
sg6
(lp188
S'Diencephalon'
p189
aS'Diencephalon-Posterior Tuberculum'
p190
aS'Mesencephalon'
p191
aS'Mesencephalon-Tegmentum'
p192
aS'Mesencephalon-Vglut2 cluster 1'
p193
aS'Telencephalon-Subpallium'
p194
aS'Rhombencephalon'
p195
aS'Rhombencephalon-Rhombomere 7'
p196
asg8
S'images/MAX_18107_6dpf_MeanImageOf10Fish.jpg'
p197
ssS'14084'
p198
(dp199
g3
g198
sg4
S'images/14084_6dpf_MeanImageOf36Fish.tif'
p200
sg6
(lp201
S'Posterior Lateral Line Ganglion'
p202
aS'Anterior Lateral Line Ganglion'
p203
aS'Vagal Ganglia'
p204
aS'Rhombencephalon-Neuropil Region 4'
p205
aS'Rhombencephalon-Interpeduncular Nucleus'
p206
aS'Diencephalon-Habenula'
p207
asg8
S'images/MAX_14084_6dpf_MeanImageOf36Fish.jpg'
p208
ssS'14085'
p209
(dp210
g3
g209
sg4
S'images/14085_6dpf_MeanImageOf37Fish.tif'
p211
sg6
(lp212
S'Ganglia-Olfactory Epithelium'
p213
aS'Telencephalon'
p214
aS'Telencephalon-Olfactory Bulb'
p215
aS'Mesencephalon-Tectum Stratum Periventriculare'
p216
aS'Mesencephalon-Vglut2 cluster 1'
p217
aS'Mesencephalon-Tegmentum'
p218
aS'Diencephalon-Pretectum'
p219
asg8
S'images/MAX_14085_6dpf_MeanImageOf37Fish.jpg'
p220
ssS'14086'
p221
(dp222
g3
g221
sg4
S'images/14086_6dpf_MeanImageOf5Fish.tif'
p223
sg6
(lp224
S'Ganglia-Vagal Ganglia'
p225
aS'Ganglia-Anterior Lateral Line Ganglia'
p226
aS'Ganglia-Statoacoustic Ganglia'
p227
aS'Diencephalon-Habenula'
p228
aS'Rhombencephalon'
p229
aS'Neuropil Region 4'
p230
asg8
S'images/MAX_14086_6dpf_MeanImageOf5Fish.jpg'
p231
ssS'14087'
p232
(dp233
g3
g232
sg4
S'images/14087_6dpf_MeanImageOf5Fish.tif'
p234
sg6
(lp235
S'Diencephalon-Habenula'
p236
aS'Rhombencephalon'
p237
aS'Neuropil Region 4'
p238
aS'Ganglia-Posterior Lateral Line Ganglia'
p239
asg8
S'images/MAX_14087_6dpf_MeanImageOf5Fish.jpg'
p240
ssS'20645'
p241
(dp242
g3
g241
sg4
S'images/20645_6dpf_MeanImageOf8Fish.tif'
p243
sg6
(lp244
sg8
S'images/MAX_20645_6dpf_MeanImageOf8Fish.jpg'
p245
ssS'20644'
p246
(dp247
g3
g246
sg4
S'images/20644_6dpf_MeanImageOf8Fish.tif'
p248
sg6
(lp249
sg8
S'images/MAX_20644_6dpf_MeanImageOf8Fish.jpg'
p250
ssS'20647'
p251
(dp252
g3
g251
sg4
S'images/20647_6dpf_MeanImageOf13Fish.tif'
p253
sg6
(lp254
sg8
S'images/MAX_20647_6dpf_MeanImageOf13Fish.jpg'
p255
ssS'16715'
p256
(dp257
g3
g256
sg4
S'images/16715_6dpf_MeanImageOf8Fish.tif'
p258
sg6
(lp259
S'Diencephalon'
p260
aS'Diencephalon-Habenula'
p261
aS'Rhombencephalon-Neuropil Region 4'
p262
aS'Rhombencephalon-Interpeduncular Nucleus'
p263
aS'Mesencephalon'
p264
asg8
S'images/MAX_16715_6dpf_MeanImageOf8Fish.jpg'
p265
ssS'18108'
p266
(dp267
g3
g266
sg4
S'images/18108_6dpf_MeanImageOf8Fish.tif'
p268
sg6
(lp269
S'Telencephalon'
p270
aS'Telencephalon-Olfactory Bulb'
p271
aS'Ganglia-Posterior Lateral Line Ganglia'
p272
aS'Rhombencephalon'
p273
aS'Rhombencephalon-Neuropil Region 4'
p274
aS'Rhombencephalon-Gad1b Stripe 3'
p275
aS'Mesencephalon'
p276
aS'Mesencephalon-Torus Semicircularis'
p277
asg8
S'images/MAX_18108_6dpf_MeanImageOf8Fish.jpg'
p278
ssS'18327'
p279
(dp280
g3
g279
sg4
S'images/18327_6dpf_MeanImageOf11Fish.tif'
p281
sg6
(lp282
S'Diencephalon'
p283
aS'Diencephalon-Right Habenula Vglut2 cluster'
p284
aS'Diencephalon-Posterior Tuberculum'
p285
aS'Diencephalon-Medial vglut2 cluster'
p286
aS'Rhombencephalon'
p287
aS'Rhombencephalon-RoM2'
p288
aS'Rhombencephalon-Olig2 enriched areas in cerebellum'
p289
asg8
S'images/MAX_18327_6dpf_MeanImageOf11Fish.jpg'
p290
ssS'20642'
p291
(dp292
g3
g291
sg4
S'images/20642_6dpf_MeanImageOf1Fish.tif'
p293
sg6
(lp294
sg8
S'images/MAX_20642_6dpf_MeanImageOf1Fish.jpg'
p295
ssS'16936'
p296
(dp297
g3
g296
sg4
S'images/16936_6dpf_MeanImageOf11Fish.tif'
p298
sg6
(lp299
S'Rhombencephalon-Gad1b Cluster 1'
p300
aS'Rhombencephalon-Neuropil Region 4'
p301
aS'Diencephalon-Habenula'
p302
aS'Diencephalon-Left Habenula Vglut2 cluster'
p303
aS'Mesencephalon'
p304
asg8
S'images/MAX_16936_6dpf_MeanImageOf11Fish.jpg'
p305
ssS'18329'
p306
(dp307
g3
g306
sg4
S'images/18329_6dpf_MeanImageOf9Fish.tif'
p308
sg6
(lp309
S'Ganglia-Vagal Ganglia'
p310
aS'Ganglia-Anterior Lateral Line Ganglia'
p311
aS'Diencephalon'
p312
aS'Diencephalon-Habenula'
p313
aS'Rhombencephalon'
p314
aS'Rhombencephalon-Neuropil Region 2'
p315
asg8
S'images/MAX_18329_6dpf_MeanImageOf9Fish.jpg'
p316
ssS'13319'
p317
(dp318
g3
g317
sg4
S'images/13319_6dpf_MeanImageOf10Fish.tif'
p319
sg6
(lp320
S'Anterior Lateral Line Ganglion'
p321
aS'Diencephalon-Habenula'
p322
aS'Diencephalon'
p323
aS'Diencephalon-Anterior Pretectum Cluster of Vmat2 Neurons'
p324
asg8
S'images/MAX_13319_6dpf_MeanImageOf10Fish.jpg'
p325
ssS'16914'
p326
(dp327
g3
g326
sg4
S'images/16914_6dpf_MeanImageOf7Fish.tif'
p328
sg6
(lp329
S'Rhombencephalon'
p330
aS'Rhombencephalon-Neuropil Region 4'
p331
aS'Ganglia-Anterior Lateral Line Ganglia'
p332
aS'Ganglia-Posterior Lateral Line Ganglia'
p333
aS'Ganglia-Olfactory Epithelium'
p334
aS'Rhombencephalon-Rhombomere 1'
p335
aS'Diencephalon'
p336
aS'Telencephalon'
p337
aS'Telencephalon-Subpallial Otpb Cluster 2'
p338
aS'Telencephalon-Olfactory Bulb'
p339
asg8
S'images/MAX_16914_6dpf_MeanImageOf7Fish.jpg'
p340
ssS'16915'
p341
(dp342
g3
g341
sg4
S'images/16915_6dpf_MeanImageOf3Fish.tif'
p343
sg6
(lp344
S'Ganglia-Anterior Lateral Line Ganglia'
p345
aS'Diencephalon'
p346
aS'Diencephalon-Habenula'
p347
aS'Rhombencephalon'
p348
aS'Rhombencephalon-Interpeduncular Nucleus'
p349
asg8
S'images/MAX_16915_6dpf_MeanImageOf3Fish.jpg'
p350
ssS'14543'
p351
(dp352
g3
g351
sg4
S'images/14543_6dpf_MeanImageOf10Fish.tif'
p353
sg6
(lp354
S'Mesencephalon-Tegmentum'
p355
aS'Diancephalon-Habenula'
p356
aS'Rhombencephalon-Rhombhomere 7'
p357
asg8
S'images/MAX_14543_6dpf_MeanImageOf10Fish.jpg'
p358
ssS'16913'
p359
(dp360
g3
g359
sg4
S'images/16913_6dpf_MeanImageOf4Fish.tif'
p361
sg6
(lp362
S'Mesencephalon'
p363
aS'Mesencephalon-Torus Semicircularis'
p364
aS'Rhombencephalon'
p365
aS'Rhombencephalon-Rhombomere 2'
p366
aS'Rhombencephalon-VII Facial Motor and octavolateralis efferent neurons'
p367
aS'Rhombencephalon-Vglut2 Stripe 4'
p368
aS'Diencephalon'
p369
aS'Diencephalon-Ventral Thalamus'
p370
asg8
S'images/MAX_16913_6dpf_MeanImageOf4Fish.jpg'
p371
ssS'20649'
p372
(dp373
g3
g372
sg4
S'images/20649_6dpf_MeanImageOf2Fish.tif'
p374
sg6
(lp375
sg8
S'images/MAX_20649_6dpf_MeanImageOf2Fish.jpg'
p376
ssS'16916'
p377
(dp378
g3
g377
sg4
S'images/16916_6dpf_MeanImageOf7Fish.tif'
p379
sg6
(lp380
S'Ganglia-Posterior Lateral Line Ganglia'
p381
aS'Ganglia-Anterior Lateral Line Ganglia'
p382
aS'Diencephalon-Habenula'
p383
aS'Rhombencephalon'
p384
aS'Rhombencephalon-Interpeduncular Nucleus'
p385
asg8
S'images/MAX_16916_6dpf_MeanImageOf7Fish.jpg'
p386
ssS'20648'
p387
(dp388
g3
S'20648'
p389
sg4
S'images/20648_6dpf_MeanImageOf1Fish.tif'
p390
sg6
(lp391
sg8
S'images/MAX_20648_6dpf_MeanImageOf1Fish.jpg'
p392
ss.