(dp0
S'20638'
p1
(dp2
S'Line Number'
p3
g1
sS'Annotations'
p4
(lp5
ssS'20639'
p6
(dp7
g3
g6
sg4
(lp8
ssS'17776'
p9
(dp10
g3
g9
sg4
(lp11
S'Ganglia-Lateral Line Neuromast N'
p12
aS'Telencephalon'
p13
aS'Telencephalon-Subpallium'
p14
aS'Rhombencephalon'
p15
aS'Rhombencephalon-Rhombomere 7'
p16
assS'17768'
p17
(dp18
g3
g17
sg4
(lp19
S'Diencephalon'
p20
aS'Diencephalon-Habenula'
p21
aS'Rhombencephalon'
p22
aS'Rhombencephalon-Olig2 enriched areas in cerebellum'
p23
aS'Rhombencephalon-Cerbellum'
p24
aS'Ganglia-Anterior Lateral Line Ganglia'
p25
aS'Ganglia-Vagal Ganglia'
p26
assS'20552'
p27
(dp28
g3
g27
sg4
(lp29
ssS'20636'
p30
(dp31
g3
g30
sg4
(lp32
ssS'16946'
p33
(dp34
g3
g33
sg4
(lp35
S'Diencephalon'
p36
aS'Diencephalon-Habenula'
p37
aS'Mesencephalon'
p38
aS'Mesencephalon-Retinal Arborization Field 9 (AF9)'
p39
aS'Rhombencephalon'
p40
aS'Rhombencephalon-Rhombomere 7'
p41
assS'17705'
p42
(dp43
g3
g42
sg4
(lp44
ssS'15577'
p45
(dp46
g3
g45
sg4
(lp47
S'Rhombencephalon'
p48
aS'Rhombencephalon-X Vagus motorneuron cluster'
p49
aS'Diencephalon'
p50
aS'Mecencephalon'
p51
aS'Ganglia- Lateral Line Neuromast 01'
p52
assS'15576'
p53
(dp54
g3
g53
sg4
(lp55
S'Diencephalon'
p56
aS'Diencephalon-Habenula'
p57
aS'Mesencephalon-Vglut2 Cluster 1'
p58
aS'Telencephalon'
p59
aS'Rhombencephalon-'
p60
aS'Neuropil Region 5'
p61
aS'Rhombencephalon-'
p62
aS'6.7FDhcrtR-Gal4 Stripe 1'
p63
assS'20654'
p64
(dp65
g3
g64
sg4
(lp66
ssS'20655'
p67
(dp68
g3
g67
sg4
(lp69
ssS'20652'
p70
(dp71
g3
g70
sg4
(lp72
ssS'20653'
p73
(dp74
g3
g73
sg4
(lp75
ssS'17767'
p76
(dp77
g3
g76
sg4
(lp78
ssS'17845'
p79
(dp80
g3
g79
sg4
(lp81
S'Diencephalon'
p82
aS'Diencephalon-Habenula'
p83
aS'Rhombencephalon'
p84
assS'17846'
p85
(dp86
g3
g85
sg4
(lp87
S'Diencephalon'
p88
aS'Diencephalon-Habenula'
p89
aS'Mesencephalon'
p90
assS'20640'
p91
(dp92
g3
g91
sg4
(lp93
ssS'19322'
p94
(dp95
g3
g94
sg4
(lp96
ssS'20643'
p97
(dp98
g3
g97
sg4
(lp99
ssS'17777'
p100
(dp101
g3
g100
sg4
(lp102
S'Ganglia-Posterior Lateral Line Ganglia'
p103
aS'Ganglia-Lateral Line Neuromast N'
p104
aS'Ganglia-Anterior Lateral Line Ganglia'
p105
aS'Diencephalon-Habenula'
p106
aS'Mesencephalon'
p107
assS'15639'
p108
(dp109
g3
g108
sg4
(lp110
S'Diencephalon-Habenula'
p111
assS'16659'
p112
(dp113
g3
g112
sg4
(lp114
S'Ganglia-Posterior Lateral Line Ganglia'
p115
aS'Diencephalon'
p116
aS'Diencephalon-Habenula'
p117
aS'Rhombencephalon-Neuropil Region 4'
p118
aS'Rhombencephalon-Interpeduncular Nucleus'
p119
assS'15635'
p120
(dp121
g3
g120
sg4
(lp122
S'Telencephalon-Subpallium'
p123
aS'Telencephalon-Subpallial dopaminergic cluster'
p124
aS'Diencephalon-Dorsal Thalamus'
p125
aS'Mesencephalon--Tectal Neuropil'
p126
aS'Ganglia-Eyes'
p127
aS'Ganglia-Trigemina'
p128
assS'17056'
p129
(dp130
g3
g129
sg4
(lp131
S'Telencephalon'
p132
aS'Telencephalon-Subpallium'
p133
aS'Rhombencephalon-Interpeduncular Nucleus'
p134
aS'Ganglia-Olfactory Epithelium'
p135
aS'Ganglia-Anterior Lateral Line Ganglia'
p136
aS'Mesencephalon'
p137
assS'18107'
p138
(dp139
g3
g138
sg4
(lp140
S'Diencephalon'
p141
aS'Diencephalon-Posterior Tuberculum'
p142
aS'Mesencephalon'
p143
aS'Mesencephalon-Tegmentum'
p144
aS'Mesencephalon-Vglut2 cluster 1'
p145
aS'Telencephalon-Subpallium'
p146
aS'Rhombencephalon'
p147
aS'Rhombencephalon-Rhombomere 7'
p148
assS'14084'
p149
(dp150
g3
g149
sg4
(lp151
S'Posterior Lateral Line Ganglion'
p152
aS'Anterior Lateral Line Ganglion'
p153
aS'Vagal Ganglia'
p154
aS'Rhombencephalon- Neuropil Region 4'
p155
aS'Rhombencephalon-Interpeduncular Nucleus'
p156
aS'Diencephalon-Habenula'
p157
assS'14085'
p158
(dp159
g3
g158
sg4
(lp160
S'Ganglia-Olfactory Epithelium'
p161
aS'Telencephalon'
p162
aS'Telencephalon-Olfactory Bulb'
p163
aS'Mesencephalon-Tectum Stratum Periventriculare'
p164
aS'Mesencephalon-Vglut 2 cluster 1'
p165
aS'Mesencephalon-Tegmentum'
p166
aS'Diencephalon-Pretectum'
p167
assS'14086'
p168
(dp169
g3
g168
sg4
(lp170
S'Ganglia-Vagal Ganglia'
p171
aS'Ganglia-Anterior Lateral Line Ganglia'
p172
aS'Ganglia-Statoacoustic Ganglia'
p173
aS'Diencephalon-Habenula'
p174
aS'Rhombencephalon-'
p175
aS'Neuropil Region 4'
p176
assS'14087'
p177
(dp178
g3
g177
sg4
(lp179
S'Diencephalon-Habenula'
p180
aS'Rhombencephalon-'
p181
aS'Neuropil Region 4'
p182
aS'Ganglia-Posterior Lateral Line Ganglia'
p183
assS'20645'
p184
(dp185
g3
g184
sg4
(lp186
ssS'20644'
p187
(dp188
g3
g187
sg4
(lp189
ssS'20647'
p190
(dp191
g3
g190
sg4
(lp192
ssS'16715'
p193
(dp194
g3
g193
sg4
(lp195
S'Diencephalon'
p196
aS'Diencephalon-Habenula'
p197
aS'Rhombencephalon-Neuropil Region 4'
p198
aS'Rhombencephalon-Interpeduncular Nucleus'
p199
aS'Mesencephalon'
p200
assS'18108'
p201
(dp202
g3
g201
sg4
(lp203
S'Telencephalon'
p204
aS'Telencephalon-Olfactory Bulb'
p205
aS'Ganglia-Posterior Lateral Line Ganglia'
p206
aS'Rhombencephalon'
p207
aS'Rhombencephalon-Neuropil Region 4'
p208
aS'Rhombencephalon-Gad1b Stripe 3'
p209
aS'Mesencephalon'
p210
aS'Mesencephalon-Torus Semicircularis'
p211
assS'18327'
p212
(dp213
g3
g212
sg4
(lp214
S'Diencephalon'
p215
aS'Diencephalon-Right Habenula Vglut2 cluster'
p216
aS'Diencephalon-Posterior Tuberculum'
p217
aS'Diencephalon-Medial vglut2 cluster'
p218
aS'Rhombencephalon'
p219
aS'Rhombencephalon-RoM2'
p220
aS'Rhombencephalon-Olig2 enriched areas in cerebellum'
p221
assS'20642'
p222
(dp223
g3
g222
sg4
(lp224
ssS'16936'
p225
(dp226
g3
g225
sg4
(lp227
S'Rhombencephalon-Gad1b Cluster 1'
p228
aS'Rhombencephalon-Neuropil Region 4'
p229
aS'Diencephalon-Habenula'
p230
aS'Diencephalon-Left Habenula Vglut2 Cluster'
p231
aS'Mesencephalon'
p232
assS'18329'
p233
(dp234
g3
g233
sg4
(lp235
S'Ganglia-Vagal Ganglia'
p236
aS'Ganglia-Anterior Lateral Line Ganglia'
p237
aS'Diencephalon'
p238
aS'Diencephalon-Habenula'
p239
aS'Rhombencephalon'
p240
aS'Rhombencephalon Neuropil Region 2'
p241
assS'13319'
p242
(dp243
g3
g242
sg4
(lp244
S'Anterior Lateral Line Ganglion'
p245
aS'Diencephalon-Habenula'
p246
aS'Diencephalon'
p247
aS'Diencephalon-Anterior Pretectum Cluster of Vmat2 Neurons'
p248
assS'16914'
p249
(dp250
g3
g249
sg4
(lp251
S'Rhombencephalon'
p252
aS'Rhombencephalon-Neuropil Region 4'
p253
aS'Ganglia-Anterior Lateral Line Ganglia'
p254
aS'Ganglia-Posterior Lateral Line Ganglia'
p255
aS'Ganglia-Olfactory Epithelium'
p256
aS'Rhombencephalon-Rhombomere 1'
p257
aS'Diencephalon'
p258
aS'Telencephalon'
p259
aS'Telencephalon-Subpallial Otpb Cluster 2'
p260
aS'Telencephalon-Olfactory bulb'
p261
assS'16915'
p262
(dp263
g3
g262
sg4
(lp264
S'Ganglia-Anterior Lateral Line Ganglia'
p265
aS'Diencephalon'
p266
aS'Diencephalon-Habenula'
p267
aS'Rhombencephalon'
p268
aS'Rhombencephalon-Interpeduncular Nucleus'
p269
assS'14543'
p270
(dp271
g3
g270
sg4
(lp272
S'Mesecephalon-Tegmentum'
p273
aS'Diancephelon-Habenula'
p274
aS'Rhombencephalon-Rhombhomere 7'
p275
assS'20660'
p276
(dp277
g3
g276
sg4
(lp278
ssS'16913'
p279
(dp280
g3
g279
sg4
(lp281
S'Mesencephalon'
p282
aS'Mesencephalon-Torus Semicircularis'
p283
aS'Rhombencephalon'
p284
aS'Rhombencephalon-Rhombomere 2'
p285
aS'Rhombencephalon-VII Facial Motor and octavolateralis efferent neurons'
p286
aS'Rhombencephalon-Vglut2 Stripe 4'
p287
aS'Diencephalon'
p288
aS'Diencephalon-Ventral Thalamus'
p289
assS'20649'
p290
(dp291
g3
g290
sg4
(lp292
ssS'20661'
p293
(dp294
g3
g293
sg4
(lp295
ssS'16916'
p296
(dp297
g3
g296
sg4
(lp298
S'Ganglia-Posterior Lateral Line Ganglia'
p299
aS'Ganglia-Anterior Lateral Line Ganglia'
p300
aS'Diencephalon-Habenula'
p301
aS'Rhombencephalon'
p302
aS'Rhombencephalon-Interpeduncular Nucleus'
p303
assS'20648'
p304
(dp305
g3
S'20648'
p306
sg4
(lp307
ss.