(dp0
S'17776'
p1
(dp2
S'Line Number'
p3
g1
sS'TIF'
p4
S'images/17776_6dpf_MeanImageOf5Fish.tif'
p5
sS'Annotations'
p6
(lp7
S'Ganglia-Lateral Line Neuromast N'
p8
aS'Telencephalon'
p9
aS'Telencephalon-Subpallium'
p10
aS'Rhombencephalon'
p11
aS'Rhombencephalon-Rhombomere 7'
p12
asS'JPEG'
p13
S'images/MAX_17776_6dpf_MeanImageOf5Fish.jpg'
p14
ssS'17768'
p15
(dp16
g3
g15
sg4
S'images/17768_6dpf_MeanImageOf9Fish.tif'
p17
sg6
(lp18
S'Diencephalon'
p19
aS'Diencephalon-Habenula'
p20
aS'Rhombencephalon'
p21
aS'Rhombencephalon-Olig2 enriched areas in cerebellum'
p22
aS'Rhombencephalon-Cerbellum'
p23
aS'Ganglia-Anterior Lateral Line Ganglia'
p24
aS'Ganglia-Vagal Ganglia'
p25
asg13
S'images/MAX_17768_6dpf_MeanImageOf9Fish.jpg'
p26
ssS'16946'
p27
(dp28
g3
g27
sg4
S'images/16946_6dpf_MeanImageOf5Fish.tif'
p29
sg6
(lp30
S'Diencephalon'
p31
aS'Diencephalon-Habenula'
p32
aS'Mesencephalon'
p33
aS'Mesencephalon-Retinal Arborization Field 9 (AF9)'
p34
aS'Rhombencephalon'
p35
aS'Rhombencephalon-Rhombomere 7'
p36
asg13
S'images/MAX_16946_6dpf_MeanImageOf5Fish.jpg'
p37
ssS'15577'
p38
(dp39
g3
g38
sg4
S'images/15577_6dpf_MeanImageOf11Fish.tif'
p40
sg6
(lp41
S'Rhombencephalon'
p42
aS'Rhombencephalon-X Vagus motorneuron cluster'
p43
aS'Diencephalon'
p44
aS'Mecencephalon'
p45
aS'Ganglia- Lateral Line Neuromast 01'
p46
asg13
S'images/MAX_15577_6dpf_MeanImageOf11Fish.jpg'
p47
ssS'15576'
p48
(dp49
g3
g48
sg4
S'images/15576_6dpf_MeanImageOf7Fish.tif'
p50
sg6
(lp51
S'Diencephalon'
p52
aS'Diencephalon-Habenula'
p53
aS'Mesencephalon-Vglut2 Cluster 1'
p54
aS'Telencephalon'
p55
aS'Rhombencephalon-'
p56
aS'Neuropil Region 5'
p57
aS'Rhombencephalon-'
p58
aS'6.7FDhcrtR-Gal4 Stripe 1'
p59
asg13
S'images/MAX_15576_6dpf_MeanImageOf7Fish.jpg'
p60
ssS'17845'
p61
(dp62
g3
g61
sg4
S'images/17845_6dpf_MeanImageOf13Fish.tif'
p63
sg6
(lp64
S'Diencephalon'
p65
aS'Diencephalon-Habenula'
p66
aS'Rhombencephalon'
p67
asg13
S'images/MAX_17845_6dpf_MeanImageOf13Fish.jpg'
p68
ssS'17846'
p69
(dp70
g3
g69
sg4
S'images/17846_6dpf_MeanImageOf5Fish.tif'
p71
sg6
(lp72
S'Diencephalon'
p73
aS'Diencephalon-Habenula'
p74
aS'Mesencephalon'
p75
asg13
S'images/MAX_17846_6dpf_MeanImageOf5Fish.jpg'
p76
ssS'17777'
p77
(dp78
g3
g77
sg4
S'images/17777_6dpf_MeanImageOf7Fish.tif'
p79
sg6
(lp80
S'Ganglia-Posterior Lateral Line Ganglia'
p81
aS'Ganglia-Lateral Line Neuromast N'
p82
aS'Ganglia-Anterior Lateral Line Ganglia'
p83
aS'Diencephalon-Habenula'
p84
aS'Mesencephalon'
p85
asg13
S'images/MAX_17777_6dpf_MeanImageOf7Fish.jpg'
p86
ssS'15639'
p87
(dp88
g3
g87
sg4
S'images/15639_6dpf_MeanImageOf4Fish.tif'
p89
sg6
(lp90
S'Diencephalon-Habenula'
p91
asg13
S'images/MAX_15639_6dpf_MeanImageOf4Fish.jpg'
p92
ssS'16659'
p93
(dp94
g3
g93
sg4
S'images/16659_6dpf_MeanImageOf6Fish.tif'
p95
sg6
(lp96
S'Ganglia-Posterior Lateral Line Ganglia'
p97
aS'Diencephalon'
p98
aS'Diencephalon-Habenula'
p99
aS'Rhombencephalon-Neuropil Region 4'
p100
aS'Rhombencephalon-Interpeduncular Nucleus'
p101
asg13
S'images/MAX_16659_6dpf_MeanImageOf6Fish.jpg'
p102
ssS'15635'
p103
(dp104
g3
g103
sg4
S'images/15635_6dpf_MeanImageOf5Fish.tif'
p105
sg6
(lp106
S'Telencephalon-Subpallium'
p107
aS'Telencephalon-Subpallial dopaminergic cluster'
p108
aS'Diencephalon-Dorsal Thalamus'
p109
aS'Mesencephalon--Tectal Neuropil'
p110
aS'Ganglia-Eyes'
p111
aS'Ganglia-Trigemina'
p112
asg13
S'images/MAX_15635_6dpf_MeanImageOf5Fish.jpg'
p113
ssS'17056'
p114
(dp115
g3
g114
sg4
S'images/17056_6dpf_MeanImageOf5Fish.tif'
p116
sg6
(lp117
S'Telencephalon'
p118
aS'Telencephalon-Subpallium'
p119
aS'Rhombencephalon-Interpeduncular Nucleus'
p120
aS'Ganglia-Olfactory Epithelium'
p121
aS'Ganglia-Anterior Lateral Line Ganglia'
p122
aS'Mesencephalon'
p123
asg13
S'images/MAX_17056_6dpf_MeanImageOf5Fish.jpg'
p124
ssS'18107'
p125
(dp126
g3
g125
sg4
S'images/18107_6dpf_MeanImageOf10Fish.tif'
p127
sg6
(lp128
S'Diencephalon'
p129
aS'Diencephalon-Posterior Tuberculum'
p130
aS'Mesencephalon'
p131
aS'Mesencephalon-Tegmentum'
p132
aS'Mesencephalon-Vglut2 cluster 1'
p133
aS'Telencephalon-Subpallium'
p134
aS'Rhombencephalon'
p135
aS'Rhombencephalon-Rhombomere 7'
p136
asg13
S'images/MAX_18107_6dpf_MeanImageOf10Fish.jpg'
p137
ssS'14084'
p138
(dp139
g3
g138
sg4
S'images/14084_6dpf_MeanImageOf36Fish.tif'
p140
sg6
(lp141
S'Posterior Lateral Line Ganglion'
p142
aS'Anterior Lateral Line Ganglion'
p143
aS'Vagal Ganglia'
p144
aS'Rhombencephalon- Neuropil Region 4'
p145
aS'Rhombencephalon-Interpeduncular Nucleus'
p146
aS'Diencephalon-Habenula'
p147
asg13
S'images/MAX_14084_6dpf_MeanImageOf36Fish.jpg'
p148
ssS'14085'
p149
(dp150
g3
g149
sg4
S'images/14085_6dpf_MeanImageOf37Fish.tif'
p151
sg6
(lp152
S'Ganglia-Olfactory Epithelium'
p153
aS'Telencephalon'
p154
aS'Telencephalon-Olfactory Bulb'
p155
aS'Mesencephalon-Tectum Stratum Periventriculare'
p156
aS'Mesencephalon-Vglut 2 cluster 1'
p157
aS'Mesencephalon-Tegmentum'
p158
aS'Diencephalon-Pretectum'
p159
asg13
S'images/MAX_14085_6dpf_MeanImageOf37Fish.jpg'
p160
ssS'14086'
p161
(dp162
g3
g161
sg4
S'images/14086_6dpf_MeanImageOf5Fish.tif'
p163
sg6
(lp164
S'Ganglia-Vagal Ganglia'
p165
aS'Ganglia-Anterior Lateral Line Ganglia'
p166
aS'Ganglia-Statoacoustic Ganglia'
p167
aS'Diencephalon-Habenula'
p168
aS'Rhombencephalon-'
p169
aS'Neuropil Region 4'
p170
asg13
S'images/MAX_14086_6dpf_MeanImageOf5Fish.jpg'
p171
ssS'14087'
p172
(dp173
g3
g172
sg4
S'images/14087_6dpf_MeanImageOf5Fish.tif'
p174
sg6
(lp175
S'Diencephalon-Habenula'
p176
aS'Rhombencephalon-'
p177
aS'Neuropil Region 4'
p178
aS'Ganglia-Posterior Lateral Line Ganglia'
p179
asg13
S'images/MAX_14087_6dpf_MeanImageOf5Fish.jpg'
p180
ssS'16715'
p181
(dp182
g3
g181
sg4
S'images/16715_6dpf_MeanImageOf8Fish.tif'
p183
sg6
(lp184
S'Diencephalon'
p185
aS'Diencephalon-Habenula'
p186
aS'Rhombencephalon-Neuropil Region 4'
p187
aS'Rhombencephalon-Interpeduncular Nucleus'
p188
aS'Mesencephalon'
p189
asg13
S'images/MAX_16715_6dpf_MeanImageOf8Fish.jpg'
p190
ssS'18108'
p191
(dp192
g3
g191
sg4
S'images/18108_6dpf_MeanImageOf8Fish.tif'
p193
sg6
(lp194
S'Telencephalon'
p195
aS'Telencephalon-Olfactory Bulb'
p196
aS'Ganglia-Posterior Lateral Line Ganglia'
p197
aS'Rhombencephalon'
p198
aS'Rhombencephalon-Neuropil Region 4'
p199
aS'Rhombencephalon-Gad1b Stripe 3'
p200
aS'Mesencephalon'
p201
aS'Mesencephalon-Torus Semicircularis'
p202
asg13
S'images/MAX_18108_6dpf_MeanImageOf8Fish.jpg'
p203
ssS'18327'
p204
(dp205
g3
g204
sg4
S'images/18327_6dpf_MeanImageOf11Fish.tif'
p206
sg6
(lp207
S'Diencephalon'
p208
aS'Diencephalon-Right Habenula Vglut2 cluster'
p209
aS'Diencephalon-Posterior Tuberculum'
p210
aS'Diencephalon-Medial vglut2 cluster'
p211
aS'Rhombencephalon'
p212
aS'Rhombencephalon-RoM2'
p213
aS'Rhombencephalon-Olig2 enriched areas in cerebellum'
p214
asg13
S'images/MAX_18327_6dpf_MeanImageOf11Fish.jpg'
p215
ssS'16936'
p216
(dp217
g3
g216
sg4
S'images/16936_6dpf_MeanImageOf11Fish.tif'
p218
sg6
(lp219
S'Rhombencephalon-Gad1b Cluster 1'
p220
aS'Rhombencephalon-Neuropil Region 4'
p221
aS'Diencephalon-Habenula'
p222
aS'Diencephalon-Left Habenula Vglut2 Cluster'
p223
aS'Mesencephalon'
p224
asg13
S'images/MAX_16936_6dpf_MeanImageOf11Fish.jpg'
p225
ssS'18329'
p226
(dp227
g3
g226
sg4
S'images/18329_6dpf_MeanImageOf9Fish.tif'
p228
sg6
(lp229
S'Ganglia-Vagal Ganglia'
p230
aS'Ganglia-Anterior Lateral Line Ganglia'
p231
aS'Diencephalon'
p232
aS'Diencephalon-Habenula'
p233
aS'Rhombencephalon'
p234
aS'Rhombencephalon Neuropil Region 2'
p235
asg13
S'images/MAX_18329_6dpf_MeanImageOf9Fish.jpg'
p236
ssS'13319'
p237
(dp238
g3
g237
sg4
S'images/13319_6dpf_MeanImageOf10Fish.tif'
p239
sg6
(lp240
S'Anterior Lateral Line Ganglion'
p241
aS'Diencephalon-Habenula'
p242
aS'Diencephalon'
p243
aS'Diencephalon-Anterior Pretectum Cluster of Vmat2 Neurons'
p244
asg13
S'images/MAX_13319_6dpf_MeanImageOf10Fish.jpg'
p245
ssS'16914'
p246
(dp247
g3
g246
sg4
S'images/16914_6dpf_MeanImageOf7Fish.tif'
p248
sg6
(lp249
S'Rhombencephalon'
p250
aS'Rhombencephalon-Neuropil Region 4'
p251
aS'Ganglia-Anterior Lateral Line Ganglia'
p252
aS'Ganglia-Posterior Lateral Line Ganglia'
p253
aS'Ganglia-Olfactory Epithelium'
p254
aS'Rhombencephalon-Rhombomere 1'
p255
aS'Diencephalon'
p256
aS'Telencephalon'
p257
aS'Telencephalon-Subpallial Otpb Cluster 2'
p258
aS'Telencephalon-Olfactory bulb'
p259
asg13
S'images/MAX_16914_6dpf_MeanImageOf7Fish.jpg'
p260
ssS'16915'
p261
(dp262
g3
g261
sg4
S'images/16915_6dpf_MeanImageOf3Fish.tif'
p263
sg6
(lp264
S'Ganglia-Anterior Lateral Line Ganglia'
p265
aS'Diencephalon'
p266
aS'Diencephalon-Habenula'
p267
aS'Rhombencephalon'
p268
aS'Rhombencephalon-Interpeduncular Nucleus'
p269
asg13
S'images/MAX_16915_6dpf_MeanImageOf3Fish.jpg'
p270
ssS'14543'
p271
(dp272
g3
g271
sg4
S'images/14543_6dpf_MeanImageOf10Fish.tif'
p273
sg6
(lp274
S'Mesecephalon-Tegmentum'
p275
aS'Diancephelon-Habenula'
p276
aS'Rhombencephalon-Rhombhomere 7'
p277
asg13
S'images/MAX_14543_6dpf_MeanImageOf10Fish.jpg'
p278
ssS'16913'
p279
(dp280
g3
g279
sg4
S'images/16913_6dpf_MeanImageOf4Fish.tif'
p281
sg6
(lp282
S'Mesencephalon'
p283
aS'Mesencephalon-Torus Semicircularis'
p284
aS'Rhombencephalon'
p285
aS'Rhombencephalon-Rhombomere 2'
p286
aS'Rhombencephalon-VII Facial Motor and octavolateralis efferent neurons'
p287
aS'Rhombencephalon-Vglut2 Stripe 4'
p288
aS'Diencephalon'
p289
aS'Diencephalon-Ventral Thalamus'
p290
asg13
S'images/MAX_16913_6dpf_MeanImageOf4Fish.jpg'
p291
ssS'16916'
p292
(dp293
g3
g292
sg4
S'images/16916_6dpf_MeanImageOf7Fish.tif'
p294
sg6
(lp295
S'Ganglia-Posterior Lateral Line Ganglia'
p296
aS'Ganglia-Anterior Lateral Line Ganglia'
p297
aS'Diencephalon-Habenula'
p298
aS'Rhombencephalon'
p299
aS'Rhombencephalon-Interpeduncular Nucleus'
p300
asg13
S'images/MAX_16916_6dpf_MeanImageOf7Fish.jpg'
p301
ss.