(dp0
S'20638'
p1
(dp2
S'Line Number'
p3
g1
sS'TIF'
p4
S'images/20638_6dpf_MeanImageOf11Fish.tif'
p5
sS'Annotations'
p6
(lp7
S'Brain'
p8
asS'JPEG'
p9
S'images/MAX_20638_6dpf_MeanImageOf11Fish.jpeg'
p10
ssS'20639'
p11
(dp12
g3
g11
sg4
S'images/20639_6dpf_MeanImageOf4Fish.tif'
p13
sg6
(lp14
S'Brain'
p15
asg9
S'images/MAX_20639_6dpf_MeanImageOf4Fish.jpeg'
p16
ssS'20553'
p17
(dp18
g3
g17
sg4
S'images/20553_6dpf_MeanImageOf6Fish.tif'
p19
sg6
(lp20
S'Brain'
p21
asg9
S'images/MAX_20553_6dpf_MeanImageOf6Fish.jpeg'
p22
ssS'17776'
p23
(dp24
g3
g23
sg4
S'images/17776_6dpf_MeanImageOf5Fish.tif'
p25
sg6
(lp26
S'Brain'
p27
aS'Ganglia-Lateral Line Neuromast N'
p28
aS'Telencephalon'
p29
aS'Telencephalon-Subpallium'
p30
aS'Rhombencephalon'
p31
aS'Rhombencephalon-Rhombomere 7'
p32
asg9
S'images/MAX_17776_6dpf_MeanImageOf5Fish.jpeg'
p33
ssS'17768'
p34
(dp35
g3
g34
sg4
S'images/17768_6dpf_MeanImageOf9Fish.tif'
p36
sg6
(lp37
S'Brain'
p38
aS'Diencephalon'
p39
aS'Diencephalon-Habenula'
p40
aS'Rhombencephalon'
p41
aS'Rhombencephalon-Olig2 enriched areas in cerebellum'
p42
aS'Rhombencephalon-Cerbellum'
p43
aS'Ganglia-Anterior Lateral Line Ganglia'
p44
aS'Ganglia-Vagal Ganglia'
p45
asg9
S'images/MAX_17768_6dpf_MeanImageOf9Fish.jpeg'
p46
ssS'17787'
p47
(dp48
g3
g47
sg4
S'images/17787_6dpf_MeanImageOf9Fish.tif'
p49
sg6
(lp50
S'Brain'
p51
asg9
S'images/MAX_17787_6dpf_MeanImageOf9Fish.jpeg'
p52
ssS'20552'
p53
(dp54
g3
g53
sg4
S'images/20552_6dpf_MeanImageOf11Fish.tif'
p55
sg6
(lp56
S'Brain'
p57
asg9
S'images/MAX_20552_6dpf_MeanImageOf11Fish.jpeg'
p58
ssS'20636'
p59
(dp60
g3
g59
sg4
S'images/20636_6dpf_MeanImageOf9Fish.tif'
p61
sg6
(lp62
S'Brain'
p63
asg9
S'images/MAX_20636_6dpf_MeanImageOf9Fish.jpeg'
p64
ssS'16946'
p65
(dp66
g3
g65
sg4
S'images/16946_6dpf_MeanImageOf5Fish.tif'
p67
sg6
(lp68
S'Brain'
p69
aS'Diencephalon'
p70
aS'Diencephalon-Habenula'
p71
aS'Mesencephalon'
p72
aS'Mesencephalon-Retinal Arborization Field 9 (AF9)'
p73
aS'Rhombencephalon'
p74
aS'Rhombencephalon-Rhombomere 7'
p75
asg9
S'images/MAX_16946_6dpf_MeanImageOf5Fish.jpeg'
p76
ssS'17705'
p77
(dp78
g3
g77
sg4
S'images/17705_6dpf_MeanImageOf5Fish.tif'
p79
sg6
(lp80
S'Brain'
p81
asg9
S'images/MAX_17705_6dpf_MeanImageOf5Fish.jpeg'
p82
ssS'15577'
p83
(dp84
g3
g83
sg4
S'images/15577_6dpf_MeanImageOf11Fish.tif'
p85
sg6
(lp86
S'Brain'
p87
aS'Rhombencephalon'
p88
aS'Rhombencephalon-X Vagus motorneuron cluster'
p89
aS'Diencephalon'
p90
aS'Mesencephalon'
p91
aS'Ganglia-Lateral Line Neuromast 01'
p92
asg9
S'images/MAX_15577_6dpf_MeanImageOf11Fish.jpeg'
p93
ssS'15576'
p94
(dp95
g3
g94
sg4
S'images/15576_6dpf_MeanImageOf7Fish.tif'
p96
sg6
(lp97
S'Brain'
p98
aS'Diencephalon'
p99
aS'Diencephalon-Habenula'
p100
aS'Mesencephalon-Vglut2 cluster 1'
p101
aS'Telencephalon'
p102
aS'Rhombencephalon'
p103
aS'Neuropil Region 5'
p104
aS'6.7FDhcrtR-Gal4 Stripe 1'
p105
asg9
S'images/MAX_15576_6dpf_MeanImageOf7Fish.jpeg'
p106
ssS'20654'
p107
(dp108
g3
g107
sg4
S'images/20654_6dpf_MeanImageOf9Fish.tif'
p109
sg6
(lp110
S'Brain'
p111
asg9
S'images/MAX_20654_6dpf_MeanImageOf9Fish.jpeg'
p112
ssS'20655'
p113
(dp114
g3
g113
sg4
S'images/20655_6dpf_MeanImageOf14Fish.tif'
p115
sg6
(lp116
S'Brain'
p117
asg9
S'images/MAX_20655_6dpf_MeanImageOf14Fish.jpeg'
p118
ssS'20652'
p119
(dp120
g3
g119
sg4
S'images/20652_6dpf_MeanImageOf4Fish.tif'
p121
sg6
(lp122
S'Brain'
p123
asg9
S'images/MAX_20652_6dpf_MeanImageOf4Fish.jpeg'
p124
ssS'20653'
p125
(dp126
g3
g125
sg4
S'images/20653_6dpf_MeanImageOf12Fish.tif'
p127
sg6
(lp128
S'Brain'
p129
asg9
S'images/MAX_20653_6dpf_MeanImageOf12Fish.jpeg'
p130
ssS'17767'
p131
(dp132
g3
g131
sg4
S'images/17767_6dpf_MeanImageOf9Fish.tif'
p133
sg6
(lp134
S'Brain'
p135
asg9
S'images/MAX_17767_6dpf_MeanImageOf9Fish.jpeg'
p136
ssS'17845'
p137
(dp138
g3
g137
sg4
S'images/17845_6dpf_MeanImageOf13Fish.tif'
p139
sg6
(lp140
S'Brain'
p141
aS'Diencephalon'
p142
aS'Diencephalon-Habenula'
p143
aS'Rhombencephalon'
p144
asg9
S'images/MAX_17845_6dpf_MeanImageOf13Fish.jpeg'
p145
ssS'17846'
p146
(dp147
g3
g146
sg4
S'images/17846_6dpf_MeanImageOf5Fish.tif'
p148
sg6
(lp149
S'Brain'
p150
aS'Diencephalon'
p151
aS'Diencephalon-Habenula'
p152
aS'Mesencephalon'
p153
asg9
S'images/MAX_17846_6dpf_MeanImageOf5Fish.jpeg'
p154
ssS'20640'
p155
(dp156
g3
g155
sg4
S'images/20640_6dpf_MeanImageOf9Fish.tif'
p157
sg6
(lp158
S'Brain'
p159
asg9
S'images/MAX_20640_6dpf_MeanImageOf9Fish.jpeg'
p160
ssS'19322'
p161
(dp162
g3
g161
sg4
S'images/19322_6dpf_MeanImageOf9Fish.tif'
p163
sg6
(lp164
S'Brain'
p165
asg9
S'images/MAX_19322_6dpf_MeanImageOf9Fish.jpeg'
p166
ssS'20643'
p167
(dp168
g3
g167
sg4
S'images/20643_6dpf_MeanImageOf12Fish.tif'
p169
sg6
(lp170
S'Brain'
p171
asg9
S'images/MAX_20643_6dpf_MeanImageOf12Fish.jpeg'
p172
ssS'20646'
p173
(dp174
g3
g173
sg4
S'images/20646_6dpf_MeanImageOf2Fish.tif'
p175
sg6
(lp176
S'Brain'
p177
asg9
S'images/MAX_20646_6dpf_MeanImageOf2Fish.jpeg'
p178
ssS'17777'
p179
(dp180
g3
g179
sg4
S'images/17777_6dpf_MeanImageOf7Fish.tif'
p181
sg6
(lp182
S'Brain'
p183
aS'Ganglia-Posterior Lateral Line Ganglia'
p184
aS'Ganglia-Lateral Line Neuromast N'
p185
aS'Ganglia-Anterior Lateral Line Ganglia'
p186
aS'Diencephalon-Habenula'
p187
aS'Mesencephalon'
p188
asg9
S'images/MAX_17777_6dpf_MeanImageOf7Fish.jpeg'
p189
ssS'15639'
p190
(dp191
g3
g190
sg4
S'images/15639_6dpf_MeanImageOf4Fish.tif'
p192
sg6
(lp193
S'Brain'
p194
aS'Diencephalon-Habenula'
p195
asg9
S'images/MAX_15639_6dpf_MeanImageOf4Fish.jpeg'
p196
ssS'20454'
p197
(dp198
g3
g197
sg4
S'images/20454_6dpf_MeanImageOf9Fish.tif'
p199
sg6
(lp200
S'Brain'
p201
asg9
S'images/MAX_20454_6dpf_MeanImageOf9Fish.jpeg'
p202
ssS'16659'
p203
(dp204
g3
g203
sg4
S'images/16659_6dpf_MeanImageOf6Fish.tif'
p205
sg6
(lp206
S'Brain'
p207
aS'Ganglia-Posterior Lateral Line Ganglia'
p208
aS'Diencephalon'
p209
aS'Diencephalon-Habenula'
p210
aS'Rhombencephalon-Neuropil Region 4'
p211
aS'Rhombencephalon-Interpeduncular Nucleus'
p212
asg9
S'images/MAX_16659_6dpf_MeanImageOf6Fish.jpeg'
p213
ssS'20940'
p214
(dp215
g3
g214
sg4
S'images/20940_6dpf_MeanImageOf9Fish.tif'
p216
sg6
(lp217
S'Brain'
p218
asg9
S'images/MAX_20940_6dpf_MeanImageOf9Fish.jpeg'
p219
ssS'20941'
p220
(dp221
g3
g220
sg4
S'images/20941_6dpf_MeanImageOf9Fish.tif'
p222
sg6
(lp223
S'Brain'
p224
asg9
S'images/MAX_20941_6dpf_MeanImageOf9Fish.jpeg'
p225
ssS'15635'
p226
(dp227
g3
g226
sg4
S'images/15635_6dpf_MeanImageOf5Fish.tif'
p228
sg6
(lp229
S'Brain'
p230
aS'Telencephalon-Subpallium'
p231
aS'Telencephalon-Subpallial Dopaminergic Cluster'
p232
aS'Diencephalon-Dorsal Thalamus'
p233
aS'Mesencephalon-Tectal Neuropil'
p234
aS'Ganglia-Eyes'
p235
aS'Ganglia-Trigemina'
p236
asg9
S'images/MAX_15635_6dpf_MeanImageOf5Fish.jpeg'
p237
ssS'20663'
p238
(dp239
g3
g238
sg4
S'images/20663_6dpf_MeanImageOf9Fish.tif'
p240
sg6
(lp241
S'Brain'
p242
asg9
S'images/MAX_20663_6dpf_MeanImageOf9Fish.jpeg'
p243
ssS'17056'
p244
(dp245
g3
g244
sg4
S'images/17056_6dpf_MeanImageOf5Fish.tif'
p246
sg6
(lp247
S'Brain'
p248
aS'Telencephalon'
p249
aS'Telencephalon-Subpallium'
p250
aS'Rhombencephalon-Interpeduncular Nucleus'
p251
aS'Ganglia-Olfactory Epithelium'
p252
aS'Ganglia-Anterior Lateral Line Ganglia'
p253
aS'Mesencephalon'
p254
asg9
S'images/MAX_17056_6dpf_MeanImageOf5Fish.jpeg'
p255
ssS'18107'
p256
(dp257
g3
g256
sg4
S'images/18107_6dpf_MeanImageOf10Fish.tif'
p258
sg6
(lp259
S'Brain'
p260
aS'Diencephalon'
p261
aS'Diencephalon-Posterior Tuberculum'
p262
aS'Mesencephalon'
p263
aS'Mesencephalon-Tegmentum'
p264
aS'Mesencephalon-Vglut2 cluster 1'
p265
aS'Telencephalon-Subpallium'
p266
aS'Rhombencephalon'
p267
aS'Rhombencephalon-Rhombomere 7'
p268
asg9
S'images/MAX_18107_6dpf_MeanImageOf10Fish.jpeg'
p269
ssS'20360'
p270
(dp271
g3
g270
sg4
S'images/20360_6dpf_MeanImageOf4Fish.tif'
p272
sg6
(lp273
S'Brain'
p274
asg9
S'images/MAX_20360_6dpf_MeanImageOf4Fish.jpeg'
p275
ssS'14084'
p276
(dp277
g3
g276
sg4
S'images/14084_6dpf_MeanImageOf36Fish.tif'
p278
sg6
(lp279
S'Brain'
p280
aS'Posterior Lateral Line Ganglion'
p281
aS'Anterior Lateral Line Ganglion'
p282
aS'Vagal Ganglia'
p283
aS'Rhombencephalon-Neuropil Region 4'
p284
aS'Rhombencephalon-Interpeduncular Nucleus'
p285
aS'Diencephalon-Habenula'
p286
asg9
S'images/MAX_14084_6dpf_MeanImageOf36Fish.jpeg'
p287
ssS'14085'
p288
(dp289
g3
g288
sg4
S'images/14085_6dpf_MeanImageOf37Fish.tif'
p290
sg6
(lp291
S'Brain'
p292
aS'Ganglia-Olfactory Epithelium'
p293
aS'Telencephalon'
p294
aS'Telencephalon-Olfactory Bulb'
p295
aS'Mesencephalon-Tectum Stratum Periventriculare'
p296
aS'Mesencephalon-Vglut2 cluster 1'
p297
aS'Mesencephalon-Tegmentum'
p298
aS'Diencephalon-Pretectum'
p299
asg9
S'images/MAX_14085_6dpf_MeanImageOf37Fish.jpeg'
p300
ssS'14086'
p301
(dp302
g3
g301
sg4
S'images/14086_6dpf_MeanImageOf5Fish.tif'
p303
sg6
(lp304
S'Brain'
p305
aS'Ganglia-Vagal Ganglia'
p306
aS'Ganglia-Anterior Lateral Line Ganglia'
p307
aS'Ganglia-Statoacoustic Ganglia'
p308
aS'Diencephalon-Habenula'
p309
aS'Rhombencephalon'
p310
aS'Neuropil Region 4'
p311
asg9
S'images/MAX_14086_6dpf_MeanImageOf5Fish.jpeg'
p312
ssS'14087'
p313
(dp314
g3
g313
sg4
S'images/14087_6dpf_MeanImageOf5Fish.tif'
p315
sg6
(lp316
S'Brain'
p317
aS'Diencephalon-Habenula'
p318
aS'Rhombencephalon'
p319
aS'Neuropil Region 4'
p320
aS'Ganglia-Posterior Lateral Line Ganglia'
p321
asg9
S'images/MAX_14087_6dpf_MeanImageOf5Fish.jpeg'
p322
ssS'20645'
p323
(dp324
g3
g323
sg4
S'images/20645_6dpf_MeanImageOf8Fish.tif'
p325
sg6
(lp326
S'Brain'
p327
asg9
S'images/MAX_20645_6dpf_MeanImageOf8Fish.jpeg'
p328
ssS'20644'
p329
(dp330
g3
g329
sg4
S'images/20644_6dpf_MeanImageOf8Fish.tif'
p331
sg6
(lp332
S'Brain'
p333
asg9
S'images/MAX_20644_6dpf_MeanImageOf8Fish.jpeg'
p334
ssS'20647'
p335
(dp336
g3
g335
sg4
S'images/20647_6dpf_MeanImageOf13Fish.tif'
p337
sg6
(lp338
S'Brain'
p339
asg9
S'images/MAX_20647_6dpf_MeanImageOf13Fish.jpeg'
p340
ssS'16715'
p341
(dp342
g3
g341
sg4
S'images/16715_6dpf_MeanImageOf8Fish.tif'
p343
sg6
(lp344
S'Brain'
p345
aS'Diencephalon'
p346
aS'Diencephalon-Habenula'
p347
aS'Rhombencephalon-Neuropil Region 4'
p348
aS'Rhombencephalon-Interpeduncular Nucleus'
p349
aS'Mesencephalon'
p350
asg9
S'images/MAX_16715_6dpf_MeanImageOf8Fish.jpeg'
p351
ssS'20641'
p352
(dp353
g3
g352
sg4
S'images/20641_6dpf_MeanImageOf9Fish.tif'
p354
sg6
(lp355
S'Brain'
p356
asg9
S'images/MAX_20641_6dpf_MeanImageOf9Fish.jpeg'
p357
ssS'18108'
p358
(dp359
g3
g358
sg4
S'images/18108_6dpf_MeanImageOf8Fish.tif'
p360
sg6
(lp361
S'Brain'
p362
aS'Telencephalon'
p363
aS'Telencephalon-Olfactory Bulb'
p364
aS'Ganglia-Posterior Lateral Line Ganglia'
p365
aS'Rhombencephalon'
p366
aS'Rhombencephalon-Neuropil Region 4'
p367
aS'Rhombencephalon-Gad1b Stripe 3'
p368
aS'Mesencephalon'
p369
aS'Mesencephalon-Torus Semicircularis'
p370
asg9
S'images/MAX_18108_6dpf_MeanImageOf8Fish.jpeg'
p371
ssS'18327'
p372
(dp373
g3
g372
sg4
S'images/18327_6dpf_MeanImageOf11Fish.tif'
p374
sg6
(lp375
S'Brain'
p376
aS'Diencephalon'
p377
aS'Diencephalon-Right Habenula Vglut2 cluster'
p378
aS'Diencephalon-Posterior Tuberculum'
p379
aS'Diencephalon-Medial vglut2 cluster'
p380
aS'Rhombencephalon'
p381
aS'Rhombencephalon-RoM2'
p382
aS'Rhombencephalon-Olig2 enriched areas in cerebellum'
p383
asg9
S'images/MAX_18327_6dpf_MeanImageOf11Fish.jpeg'
p384
ssS'20642'
p385
(dp386
g3
g385
sg4
S'images/20642_6dpf_MeanImageOf1Fish.tif'
p387
sg6
(lp388
S'Brain'
p389
asg9
S'images/MAX_20642_6dpf_MeanImageOf1Fish.jpeg'
p390
ssS'16936'
p391
(dp392
g3
g391
sg4
S'images/16936_6dpf_MeanImageOf11Fish.tif'
p393
sg6
(lp394
S'Brain'
p395
aS'Rhombencephalon-Gad1b Cluster 1'
p396
aS'Rhombencephalon-Neuropil Region 4'
p397
aS'Diencephalon-Habenula'
p398
aS'Diencephalon-Left Habenula Vglut2 cluster'
p399
aS'Mesencephalon'
p400
asg9
S'images/MAX_16936_6dpf_MeanImageOf11Fish.jpeg'
p401
ssS'18329'
p402
(dp403
g3
g402
sg4
S'images/18329_6dpf_MeanImageOf9Fish.tif'
p404
sg6
(lp405
S'Brain'
p406
aS'Ganglia-Vagal Ganglia'
p407
aS'Ganglia-Anterior Lateral Line Ganglia'
p408
aS'Diencephalon'
p409
aS'Diencephalon-Habenula'
p410
aS'Rhombencephalon'
p411
aS'Rhombencephalon-Neuropil Region 2'
p412
asg9
S'images/MAX_18329_6dpf_MeanImageOf9Fish.jpeg'
p413
ssS'13319'
p414
(dp415
g3
g414
sg4
S'images/13319_6dpf_MeanImageOf10Fish.tif'
p416
sg6
(lp417
S'Brain'
p418
aS'Anterior Lateral Line Ganglion'
p419
aS'Diencephalon-Habenula'
p420
aS'Diencephalon'
p421
aS'Diencephalon-Anterior Pretectum Cluster of Vmat2 Neurons'
p422
asg9
S'images/MAX_13319_6dpf_MeanImageOf10Fish.jpeg'
p423
ssS'16914'
p424
(dp425
g3
g424
sg4
S'images/16914_6dpf_MeanImageOf7Fish.tif'
p426
sg6
(lp427
S'Brain'
p428
aS'Rhombencephalon'
p429
aS'Rhombencephalon-Neuropil Region 4'
p430
aS'Ganglia-Anterior Lateral Line Ganglia'
p431
aS'Ganglia-Posterior Lateral Line Ganglia'
p432
aS'Ganglia-Olfactory Epithelium'
p433
aS'Rhombencephalon-Rhombomere 1'
p434
aS'Diencephalon'
p435
aS'Telencephalon'
p436
aS'Telencephalon-Subpallial Otpb Cluster 2'
p437
aS'Telencephalon-Olfactory Bulb'
p438
asg9
S'images/MAX_16914_6dpf_MeanImageOf7Fish.jpeg'
p439
ssS'16915'
p440
(dp441
g3
g440
sg4
S'images/16915_6dpf_MeanImageOf3Fish.tif'
p442
sg6
(lp443
S'Brain'
p444
aS'Ganglia-Anterior Lateral Line Ganglia'
p445
aS'Diencephalon'
p446
aS'Diencephalon-Habenula'
p447
aS'Rhombencephalon'
p448
aS'Rhombencephalon-Interpeduncular Nucleus'
p449
asg9
S'images/MAX_16915_6dpf_MeanImageOf3Fish.jpeg'
p450
ssS'14543'
p451
(dp452
g3
g451
sg4
S'images/14543_6dpf_MeanImageOf10Fish.tif'
p453
sg6
(lp454
S'Brain'
p455
aS'Mesencephalon-Tegmentum'
p456
aS'Diancephalon-Habenula'
p457
aS'Rhombencephalon-Rhombhomere 7'
p458
asg9
S'images/MAX_14543_6dpf_MeanImageOf10Fish.jpeg'
p459
ssS'20361'
p460
(dp461
g3
g460
sg4
S'images/20361_6dpf_MeanImageOf10Fish.tif'
p462
sg6
(lp463
S'Brain'
p464
asg9
S'images/MAX_20361_6dpf_MeanImageOf10Fish.jpeg'
p465
ssS'20660'
p466
(dp467
g3
g466
sg4
S'images/20660_6dpf_MeanImageOf6Fish.tif'
p468
sg6
(lp469
S'Brain'
p470
asg9
S'images/MAX_20660_6dpf_MeanImageOf6Fish.jpeg'
p471
ssS'16913'
p472
(dp473
g3
g472
sg4
S'images/16913_6dpf_MeanImageOf4Fish.tif'
p474
sg6
(lp475
S'Brain'
p476
aS'Mesencephalon'
p477
aS'Mesencephalon-Torus Semicircularis'
p478
aS'Rhombencephalon'
p479
aS'Rhombencephalon-Rhombomere 2'
p480
aS'Rhombencephalon-VII Facial Motor and octavolateralis efferent neurons'
p481
aS'Rhombencephalon-Vglut2 Stripe 4'
p482
aS'Diencephalon'
p483
aS'Diencephalon-Ventral Thalamus'
p484
asg9
S'images/MAX_16913_6dpf_MeanImageOf4Fish.jpeg'
p485
ssS'19564'
p486
(dp487
g3
g486
sg4
S'images/19564_6dpf_MeanImageOf7Fish.tif'
p488
sg6
(lp489
S'Brain'
p490
aS'Vasculature '
p491
asg9
S'images/MAX_19564_6dpf_MeanImageOf7Fish.jpeg'
p492
ssS'19566'
p493
(dp494
g3
g493
sg4
S'images/19566_6dpf_MeanImageOf10Fish.tif'
p495
sg6
(lp496
S'Brain'
p497
asg9
S'images/MAX_19566_6dpf_MeanImageOf10Fish.jpeg'
p498
ssS'20649'
p499
(dp500
g3
g499
sg4
S'images/20649_6dpf_MeanImageOf2Fish.tif'
p501
sg6
(lp502
S'Brain'
p503
asg9
S'images/MAX_20649_6dpf_MeanImageOf2Fish.jpeg'
p504
ssS'20661'
p505
(dp506
g3
g505
sg4
S'images/20661_6dpf_MeanImageOf7Fish.tif'
p507
sg6
(lp508
S'Brain'
p509
asg9
S'images/MAX_20661_6dpf_MeanImageOf7Fish.jpeg'
p510
ssS'16916'
p511
(dp512
g3
g511
sg4
S'images/16916_6dpf_MeanImageOf7Fish.tif'
p513
sg6
(lp514
S'Brain'
p515
aS'Ganglia-Posterior Lateral Line Ganglia'
p516
aS'Ganglia-Anterior Lateral Line Ganglia'
p517
aS'Diencephalon-Habenula'
p518
aS'Rhombencephalon'
p519
aS'Rhombencephalon-Interpeduncular Nucleus'
p520
asg9
S'images/MAX_16916_6dpf_MeanImageOf7Fish.jpeg'
p521
ssS'20648'
p522
(dp523
g3
S'20648'
p524
sg4
S'images/20648_6dpf_MeanImageOf1Fish.tif'
p525
sg6
(lp526
S'Brain'
p527
asg9
S'images/MAX_20648_6dpf_MeanImageOf1Fish.jpeg'
p528
ss.