(dp0
S'20638'
p1
(dp2
S'Line Number'
p3
g1
sS'TIF'
p4
S'images/20638_6dpf_MeanImageOf11Fish.tif'
p5
sS'Annotations'
p6
(lp7
S'Brain'
p8
asS'JPEG'
p9
S'images/MAX_20638_6dpf_MeanImageOf11Fish.jpeg'
p10
sS'TIF16'
p11
S'images/20638_6dpf_MeanImageOf11Fish16bit.tif'
p12
ssS'20639'
p13
(dp14
g3
g13
sg4
S'images/20639_6dpf_MeanImageOf4Fish.tif'
p15
sg6
(lp16
S'Brain'
p17
asg9
S'images/MAX_20639_6dpf_MeanImageOf4Fish.jpeg'
p18
sg11
S'images/20639_6dpf_MeanImageOf4Fish16bit.tif'
p19
ssS'17767'
p20
(dp21
g3
g20
sg4
S'images/17767_6dpf_MeanImageOf9Fish.tif'
p22
sg6
(lp23
S'Brain'
p24
asg9
S'images/MAX_17767_6dpf_MeanImageOf9Fish.jpeg'
p25
sg11
S'images/17767_6dpf_MeanImageOf9Fish16bit.tif'
p26
ssS'17768'
p27
(dp28
g3
g27
sg4
S'images/17768_6dpf_MeanImageOf9Fish.tif'
p29
sg6
(lp30
S'Brain'
p31
aS'Diencephalon'
p32
aS'Diencephalon-Habenula'
p33
aS'Rhombencephalon'
p34
aS'Rhombencephalon-Olig2 enriched areas in cerebellum'
p35
aS'Rhombencephalon-Cerbellum'
p36
aS'Ganglia-Anterior Lateral Line Ganglia'
p37
aS'Ganglia-Vagal Ganglia'
p38
asg9
S'images/MAX_17768_6dpf_MeanImageOf9Fish.jpeg'
p39
sg11
S'images/17768_6dpf_MeanImageOf9Fish16bit.tif'
p40
ssS'17787'
p41
(dp42
g3
g41
sg4
S'images/17787_6dpf_MeanImageOf9Fish.tif'
p43
sg6
(lp44
S'Brain'
p45
asg9
S'images/MAX_17787_6dpf_MeanImageOf9Fish.jpeg'
p46
sg11
S'images/17787_6dpf_MeanImageOf9Fish16bit.tif'
p47
ssS'16946'
p48
(dp49
g3
g48
sg4
S'images/16946_6dpf_MeanImageOf5Fish.tif'
p50
sg6
(lp51
S'Brain'
p52
aS'Diencephalon'
p53
aS'Diencephalon-Habenula'
p54
aS'Mesencephalon'
p55
aS'Mesencephalon-Retinal Arborization Field 9 (AF9)'
p56
aS'Rhombencephalon'
p57
aS'Rhombencephalon-Rhombomere 7'
p58
asg9
S'images/MAX_16946_6dpf_MeanImageOf5Fish.jpeg'
p59
sg11
S'images/16946_6dpf_MeanImageOf5Fish16bit.tif'
p60
ssS'15576'
p61
(dp62
g3
g61
sg4
S'images/15576_6dpf_MeanImageOf7Fish.tif'
p63
sg6
(lp64
S'Brain'
p65
aS'Diencephalon'
p66
aS'Diencephalon-Habenula'
p67
aS'Mesencephalon-Vglut2 cluster 1'
p68
aS'Telencephalon'
p69
aS'Rhombencephalon'
p70
aS'Neuropil Region 5'
p71
aS'6.7FDhcrtR-Gal4 Stripe 1'
p72
asg9
S'images/MAX_15576_6dpf_MeanImageOf7Fish.jpeg'
p73
sg11
S'images/15576_6dpf_MeanImageOf7Fish16bit.tif'
p74
ssS'20654'
p75
(dp76
g3
g75
sg4
S'images/20654_6dpf_MeanImageOf9Fish.tif'
p77
sg6
(lp78
S'Brain'
p79
asg9
S'images/MAX_20654_6dpf_MeanImageOf9Fish.jpeg'
p80
sg11
S'images/20654_6dpf_MeanImageOf9Fish16bit.tif'
p81
ssS'20655'
p82
(dp83
g3
g82
sg4
S'images/20655_6dpf_MeanImageOf14Fish.tif'
p84
sg6
(lp85
S'Brain'
p86
asg9
S'images/MAX_20655_6dpf_MeanImageOf14Fish.jpeg'
p87
sg11
S'images/20655_6dpf_MeanImageOf13Fish16bit.tif'
p88
ssS'20652'
p89
(dp90
g3
g89
sg4
S'images/20652_6dpf_MeanImageOf4Fish.tif'
p91
sg6
(lp92
S'Brain'
p93
asg9
S'images/MAX_20652_6dpf_MeanImageOf4Fish.jpeg'
p94
sg11
S'images/20652_6dpf_MeanImageOf4Fish16bit.tif'
p95
ssS'20653'
p96
(dp97
g3
g96
sg4
S'images/20653_6dpf_MeanImageOf12Fish.tif'
p98
sg6
(lp99
S'Brain'
p100
asg9
S'images/MAX_20653_6dpf_MeanImageOf12Fish.jpeg'
p101
sg11
S'images/20653_6dpf_MeanImageOf12Fish16bit.tif'
p102
ssS'20660'
p103
(dp104
g3
g103
sg4
S'images/20660_6dpf_MeanImageOf6Fish.tif'
p105
sg6
(lp106
S'Brain'
p107
asg9
S'images/MAX_20660_6dpf_MeanImageOf6Fish.jpeg'
p108
sg11
S'images/20660_6dpf_MeanImageOf6Fish16bit.tif'
p109
ssS'17845'
p110
(dp111
g3
g110
sg4
S'images/17845_6dpf_MeanImageOf13Fish.tif'
p112
sg6
(lp113
S'Brain'
p114
aS'Diencephalon'
p115
aS'Diencephalon-Habenula'
p116
aS'Rhombencephalon'
p117
asg9
S'images/MAX_17845_6dpf_MeanImageOf13Fish.jpeg'
p118
sg11
S'images/17845_6dpf_MeanImageOf13Fish16bit.tif'
p119
ssS'17846'
p120
(dp121
g3
g120
sg4
S'images/17846_6dpf_MeanImageOf5Fish.tif'
p122
sg6
(lp123
S'Brain'
p124
aS'Diencephalon'
p125
aS'Diencephalon-Habenula'
p126
aS'Mesencephalon'
p127
asg9
S'images/MAX_17846_6dpf_MeanImageOf5Fish.jpeg'
p128
sg11
S'images/17846_6dpf_MeanImageOf5Fish16bit.tif'
p129
ssS'20640'
p130
(dp131
g3
g130
sg4
S'images/20640_6dpf_MeanImageOf9Fish.tif'
p132
sg6
(lp133
S'Brain'
p134
asg9
S'images/MAX_20640_6dpf_MeanImageOf9Fish.jpeg'
p135
sg11
S'images/20640_6dpf_MeanImageOf9Fish16bit.tif'
p136
ssS'19322'
p137
(dp138
g3
g137
sg4
S'images/19322_6dpf_MeanImageOf9Fish.tif'
p139
sg6
(lp140
S'Brain'
p141
asg9
S'images/MAX_19322_6dpf_MeanImageOf9Fish.jpeg'
p142
sg11
S'images/19322_6dpf_MeanImageOf9Fish16bit.tif'
p143
ssS'20643'
p144
(dp145
g3
g144
sg4
S'images/20643_6dpf_MeanImageOf12Fish.tif'
p146
sg6
(lp147
S'Brain'
p148
asg9
S'images/MAX_20643_6dpf_MeanImageOf12Fish.jpeg'
p149
sg11
S'images/20643_6dpf_MeanImageOf12Fish16bit.tif'
p150
ssS'17777'
p151
(dp152
g3
g151
sg4
S'images/17777_6dpf_MeanImageOf7Fish.tif'
p153
sg6
(lp154
S'Brain'
p155
aS'Ganglia-Posterior Lateral Line Ganglia'
p156
aS'Ganglia-Lateral Line Neuromast N'
p157
aS'Ganglia-Anterior Lateral Line Ganglia'
p158
aS'Diencephalon-Habenula'
p159
aS'Mesencephalon'
p160
asg9
S'images/MAX_17777_6dpf_MeanImageOf7Fish.jpeg'
p161
sg11
S'images/17777_6dpf_MeanImageOf7Fish16bit.tif'
p162
ssS'17776'
p163
(dp164
g3
g163
sg4
S'images/17776_6dpf_MeanImageOf5Fish.tif'
p165
sg6
(lp166
S'Brain'
p167
aS'Ganglia-Lateral Line Neuromast N'
p168
aS'Telencephalon'
p169
aS'Telencephalon-Subpallium'
p170
aS'Rhombencephalon'
p171
aS'Rhombencephalon-Rhombomere 7'
p172
asg9
S'images/MAX_17776_6dpf_MeanImageOf5Fish.jpeg'
p173
sg11
S'images/17776_6dpf_MeanImageOf5Fish16bit.tif'
p174
ssS'20454'
p175
(dp176
g3
g175
sg4
S'images/20454_6dpf_MeanImageOf9Fish.tif'
p177
sg6
(lp178
S'Brain'
p179
asg9
S'images/MAX_20454_6dpf_MeanImageOf9Fish.jpeg'
p180
sg11
S'images/20454_6dpf_MeanImageOf9Fish16bit.tif'
p181
ssS'16659'
p182
(dp183
g3
g182
sg4
S'images/16659_6dpf_MeanImageOf6Fish.tif'
p184
sg6
(lp185
S'Brain'
p186
aS'Ganglia-Posterior Lateral Line Ganglia'
p187
aS'Diencephalon'
p188
aS'Diencephalon-Habenula'
p189
aS'Rhombencephalon-Neuropil Region 4'
p190
aS'Rhombencephalon-Interpeduncular Nucleus'
p191
asg9
S'images/MAX_16659_6dpf_MeanImageOf6Fish.jpeg'
p192
sg11
S'images/16659_6dpf_MeanImageOf6Fish16bit.tif'
p193
ssS'20646'
p194
(dp195
g3
g194
sg4
S'images/20646_6dpf_MeanImageOf2Fish.tif'
p196
sg6
(lp197
S'Brain'
p198
asg9
S'images/MAX_20646_6dpf_MeanImageOf2Fish.jpeg'
p199
sg11
S'images/20646_6dpf_MeanImageOf2Fish16bit.tif'
p200
ssS'20941'
p201
(dp202
g3
g201
sg4
S'images/20941_6dpf_MeanImageOf9Fish.tif'
p203
sg6
(lp204
S'Brain'
p205
asg9
S'images/MAX_20941_6dpf_MeanImageOf9Fish.jpeg'
p206
sg11
S'images/20941_6dpf_MeanImageOf9Fish16bit.tif'
p207
ssS'18329'
p208
(dp209
g3
g208
sg4
S'images/18329_6dpf_MeanImageOf9Fish.tif'
p210
sg6
(lp211
S'Brain'
p212
aS'Ganglia-Vagal Ganglia'
p213
aS'Ganglia-Anterior Lateral Line Ganglia'
p214
aS'Diencephalon'
p215
aS'Diencephalon-Habenula'
p216
aS'Rhombencephalon'
p217
aS'Rhombencephalon-Neuropil Region 2'
p218
asg9
S'images/MAX_18329_6dpf_MeanImageOf9Fish.jpeg'
p219
sg11
S'images/18329_6dpf_MeanImageOf9Fish16bit.tif'
p220
ssS'18107'
p221
(dp222
g3
g221
sg4
S'images/18107_6dpf_MeanImageOf10Fish.tif'
p223
sg6
(lp224
S'Brain'
p225
aS'Diencephalon'
p226
aS'Diencephalon-Posterior Tuberculum'
p227
aS'Mesencephalon'
p228
aS'Mesencephalon-Tegmentum'
p229
aS'Mesencephalon-Vglut2 cluster 1'
p230
aS'Telencephalon-Subpallium'
p231
aS'Rhombencephalon'
p232
aS'Rhombencephalon-Rhombomere 7'
p233
asg9
S'images/MAX_18107_6dpf_MeanImageOf10Fish.jpeg'
p234
sg11
S'images/18107_6dpf_MeanImageOf10Fish16bit.tif'
p235
ssS'20649'
p236
(dp237
g3
g236
sg4
S'images/20649_6dpf_MeanImageOf2Fish.tif'
p238
sg6
(lp239
S'Brain'
p240
asg9
S'images/MAX_20649_6dpf_MeanImageOf2Fish.jpeg'
p241
sg11
S'images/20649_6dpf_MeanImageOf2Fish16bit.tif'
p242
ssS'20648'
p243
(dp244
g3
g243
sg4
S'images/20648_6dpf_MeanImageOf1Fish.tif'
p245
sg6
(lp246
S'Brain'
p247
asg9
S'images/MAX_20648_6dpf_MeanImageOf1Fish.jpeg'
p248
sg11
S'images/20648_6dpf_MeanImageOf1Fish16bit.tif'
p249
ssS'20553'
p250
(dp251
g3
g250
sg4
S'images/20553_6dpf_MeanImageOf6Fish.tif'
p252
sg6
(lp253
S'Brain'
p254
asg9
S'images/MAX_20553_6dpf_MeanImageOf6Fish.jpeg'
p255
sg11
S'images/20553_6dpf_MeanImageOf6Fish16bit.tif'
p256
ssS'20552'
p257
(dp258
g3
g257
sg4
S'images/20552_6dpf_MeanImageOf11Fish.tif'
p259
sg6
(lp260
S'Brain'
p261
asg9
S'images/MAX_20552_6dpf_MeanImageOf11Fish.jpeg'
p262
sg11
S'images/20552_6dpf_MeanImageOf11Fish16bit.tif'
p263
ssS'20663'
p264
(dp265
g3
g264
sg4
S'images/20663_6dpf_MeanImageOf9Fish.tif'
p266
sg6
(lp267
S'Brain'
p268
asg9
S'images/MAX_20663_6dpf_MeanImageOf9Fish.jpeg'
p269
sg11
S'images/20663_6dpf_MeanImageOf9Fish16bit.tif'
p270
ssS'20644'
p271
(dp272
g3
g271
sg4
S'images/20644_6dpf_MeanImageOf8Fish.tif'
p273
sg6
(lp274
S'Brain'
p275
asg9
S'images/MAX_20644_6dpf_MeanImageOf8Fish.jpeg'
p276
sg11
S'images/20644_6dpf_MeanImageOf8Fish16bit.tif'
p277
ssS'20647'
p278
(dp279
g3
g278
sg4
S'images/20647_6dpf_MeanImageOf13Fish.tif'
p280
sg6
(lp281
S'Brain'
p282
asg9
S'images/MAX_20647_6dpf_MeanImageOf13Fish.jpeg'
p283
sg11
S'images/20647_6dpf_MeanImageOf13Fish16bit.tif'
p284
ssS'16715'
p285
(dp286
g3
g285
sg4
S'images/16715_6dpf_MeanImageOf8Fish.tif'
p287
sg6
(lp288
S'Brain'
p289
aS'Diencephalon'
p290
aS'Diencephalon-Habenula'
p291
aS'Rhombencephalon-Neuropil Region 4'
p292
aS'Rhombencephalon-Interpeduncular Nucleus'
p293
aS'Mesencephalon'
p294
asg9
S'images/MAX_16715_6dpf_MeanImageOf8Fish.jpeg'
p295
sg11
S'images/16715_6dpf_MeanImageOf8Fish16bit.tif'
p296
ssS'20641'
p297
(dp298
g3
g297
sg4
S'images/20641_6dpf_MeanImageOf9Fish.tif'
p299
sg6
(lp300
S'Brain'
p301
asg9
S'images/MAX_20641_6dpf_MeanImageOf9Fish.jpeg'
p302
sg11
S'images/20641_6dpf_MeanImageOf9Fish16bit.tif'
p303
ssS'18108'
p304
(dp305
g3
g304
sg4
S'images/18108_6dpf_MeanImageOf8Fish.tif'
p306
sg6
(lp307
S'Brain'
p308
aS'Telencephalon'
p309
aS'Telencephalon-Olfactory Bulb'
p310
aS'Ganglia-Posterior Lateral Line Ganglia'
p311
aS'Rhombencephalon'
p312
aS'Rhombencephalon-Neuropil Region 4'
p313
aS'Rhombencephalon-Gad1b Stripe 3'
p314
aS'Mesencephalon'
p315
aS'Mesencephalon-Torus Semicircularis'
p316
asg9
S'images/MAX_18108_6dpf_MeanImageOf8Fish.jpeg'
p317
sg11
S'images/18108_6dpf_MeanImageOf8Fish16bit.tif'
p318
ssS'18327'
p319
(dp320
g3
g319
sg4
S'images/18327_6dpf_MeanImageOf11Fish.tif'
p321
sg6
(lp322
S'Brain'
p323
aS'Diencephalon'
p324
aS'Diencephalon-Right Habenula Vglut2 cluster'
p325
aS'Diencephalon-Posterior Tuberculum'
p326
aS'Diencephalon-Medial vglut2 cluster'
p327
aS'Rhombencephalon'
p328
aS'Rhombencephalon-RoM2'
p329
aS'Rhombencephalon-Olig2 enriched areas in cerebellum'
p330
asg9
S'images/MAX_18327_6dpf_MeanImageOf11Fish.jpeg'
p331
sg11
S'images/18327_6dpf_MeanImageOf11Fish16bit.tif'
p332
ssS'20642'
p333
(dp334
g3
g333
sg4
S'images/20642_6dpf_MeanImageOf1Fish.tif'
p335
sg6
(lp336
S'Brain'
p337
asg9
S'images/MAX_20642_6dpf_MeanImageOf1Fish.jpeg'
p338
sg11
S'images/20642_6dpf_MeanImageOf1Fish16bit.tif'
p339
ssS'17056'
p340
(dp341
g3
g340
sg4
S'images/17056_6dpf_MeanImageOf5Fish.tif'
p342
sg6
(lp343
S'Brain'
p344
aS'Telencephalon'
p345
aS'Telencephalon-Subpallium'
p346
aS'Rhombencephalon-Interpeduncular Nucleus'
p347
aS'Ganglia-Olfactory Epithelium'
p348
aS'Ganglia-Anterior Lateral Line Ganglia'
p349
aS'Mesencephalon'
p350
asg9
S'images/MAX_17056_6dpf_MeanImageOf5Fish.jpeg'
p351
sg11
S'images/17056_6dpf_MeanImageOf5Fish16bit.tif'
p352
ssS'13319'
p353
(dp354
g3
g353
sg4
S'images/13319_6dpf_MeanImageOf10Fish.tif'
p355
sg6
(lp356
S'Brain'
p357
aS'Anterior Lateral Line Ganglion'
p358
aS'Diencephalon-Habenula'
p359
aS'Diencephalon'
p360
aS'Diencephalon-Anterior Pretectum Cluster of Vmat2 Neurons'
p361
asg9
S'images/MAX_13319_6dpf_MeanImageOf10Fish.jpeg'
p362
sg11
S'images/13319_6dpf_MeanImageOf10Fish16bit.tif'
p363
ssS'16914'
p364
(dp365
g3
g364
sg4
S'images/16914_6dpf_MeanImageOf7Fish.tif'
p366
sg6
(lp367
S'Brain'
p368
aS'Rhombencephalon'
p369
aS'Rhombencephalon-Neuropil Region 4'
p370
aS'Ganglia-Anterior Lateral Line Ganglia'
p371
aS'Ganglia-Posterior Lateral Line Ganglia'
p372
aS'Ganglia-Olfactory Epithelium'
p373
aS'Rhombencephalon-Rhombomere 1'
p374
aS'Diencephalon'
p375
aS'Telencephalon'
p376
aS'Telencephalon-Subpallial Otpb Cluster 2'
p377
aS'Telencephalon-Olfactory Bulb'
p378
asg9
S'images/MAX_16914_6dpf_MeanImageOf7Fish.jpeg'
p379
sg11
S'images/16914_6dpf_MeanImageOf7Fish16bit.tif'
p380
ssS'16915'
p381
(dp382
g3
g381
sg4
S'images/16915_6dpf_MeanImageOf3Fish.tif'
p383
sg6
(lp384
S'Brain'
p385
aS'Ganglia-Anterior Lateral Line Ganglia'
p386
aS'Diencephalon'
p387
aS'Diencephalon-Habenula'
p388
aS'Rhombencephalon'
p389
aS'Rhombencephalon-Interpeduncular Nucleus'
p390
asg9
S'images/MAX_16915_6dpf_MeanImageOf3Fish.jpeg'
p391
sg11
S'images/16915_6dpf_MeanImageOf3Fish16bit.tif'
p392
ssS'16916'
p393
(dp394
g3
g393
sg4
S'images/16916_6dpf_MeanImageOf7Fish.tif'
p395
sg6
(lp396
S'Brain'
p397
aS'Ganglia-Posterior Lateral Line Ganglia'
p398
aS'Ganglia-Anterior Lateral Line Ganglia'
p399
aS'Diencephalon-Habenula'
p400
aS'Rhombencephalon'
p401
aS'Rhombencephalon-Interpeduncular Nucleus'
p402
asg9
S'images/MAX_16916_6dpf_MeanImageOf7Fish.jpeg'
p403
sg11
S'images/16916_6dpf_MeanImageOf7Fish16bit.tif'
p404
ssS'20361'
p405
(dp406
g3
g405
sg4
S'images/20361_6dpf_MeanImageOf10Fish.tif'
p407
sg6
(lp408
S'Brain'
p409
asg9
S'images/MAX_20361_6dpf_MeanImageOf10Fish.jpeg'
p410
sg11
S'images/20361_6dpf_MeanImageOf10Fish16bit.tif'
p411
ssS'16913'
p412
(dp413
g3
g412
sg4
S'images/16913_6dpf_MeanImageOf4Fish.tif'
p414
sg6
(lp415
S'Brain'
p416
aS'Mesencephalon'
p417
aS'Mesencephalon-Torus Semicircularis'
p418
aS'Rhombencephalon'
p419
aS'Rhombencephalon-Rhombomere 2'
p420
aS'Rhombencephalon-VII Facial Motor and octavolateralis efferent neurons'
p421
aS'Rhombencephalon-Vglut2 Stripe 4'
p422
aS'Diencephalon'
p423
aS'Diencephalon-Ventral Thalamus'
p424
asg9
S'images/MAX_16913_6dpf_MeanImageOf4Fish.jpeg'
p425
sg11
S'images/16913_6dpf_MeanImageOf4Fish16bit.tif'
p426
ssS'19566'
p427
(dp428
g3
g427
sg4
S'images/19566_6dpf_MeanImageOf10Fish.tif'
p429
sg6
(lp430
S'Brain'
p431
asg9
S'images/MAX_19566_6dpf_MeanImageOf10Fish.jpeg'
p432
sg11
S'images/19566_6dpf_MeanImageOf10Fish16bit.tif'
p433
ssS'20661'
p434
(dp435
g3
g434
sg4
S'images/20661_6dpf_MeanImageOf7Fish.tif'
p436
sg6
(lp437
S'Brain'
p438
asg9
S'images/MAX_20661_6dpf_MeanImageOf7Fish.jpeg'
p439
sg11
S'images/20661_6dpf_MeanImageOf7Fish16bit.tif'
p440
ssS'20360'
p441
(dp442
g3
g441
sg4
S'images/20360_6dpf_MeanImageOf4Fish.tif'
p443
sg6
(lp444
S'Brain'
p445
asg9
S'images/MAX_20360_6dpf_MeanImageOf4Fish.jpeg'
p446
sg11
S'images/20360_6dpf_MeanImageOf4Fish16bit.tif'
p447
ss.