(dp0
S'20638'
p1
(dp2
S'Line Number'
p3
g1
sS'TIF'
p4
S'images/20638_6dpf_MeanImageOf11Fish.tif'
p5
sS'Annotations'
p6
(lp7
S'Brain'
p8
asS'JPEG'
p9
S'images/MAX_20638_6dpf_MeanImageOf11Fish.jpeg'
p10
sS'TIF16'
p11
S'images/20638_6dpf_MeanImageOf11Fish16bit.tif'
p12
ssS'20639'
p13
(dp14
g3
g13
sg4
S'images/20639_6dpf_MeanImageOf4Fish.tif'
p15
sg6
(lp16
S'Brain'
p17
asg9
S'images/MAX_20639_6dpf_MeanImageOf4Fish.jpeg'
p18
sg11
S'images/20639_6dpf_MeanImageOf4Fish16bit.tif'
p19
ssS'20553'
p20
(dp21
g3
g20
sg4
S'images/20553_6dpf_MeanImageOf6Fish.tif'
p22
sg6
(lp23
S'Brain'
p24
asg9
S'images/MAX_20553_6dpf_MeanImageOf6Fish.jpeg'
p25
sg11
S'images/20553_6dpf_MeanImageOf6Fish16bit.tif'
p26
ssS'17776'
p27
(dp28
g3
g27
sg4
S'images/17776_6dpf_MeanImageOf5Fish.tif'
p29
sg6
(lp30
S'Brain'
p31
aS'Ganglia-Lateral Line Neuromast N'
p32
aS'Telencephalon'
p33
aS'Telencephalon-Subpallium'
p34
aS'Rhombencephalon'
p35
aS'Rhombencephalon-Rhombomere 7'
p36
asg9
S'images/MAX_17776_6dpf_MeanImageOf5Fish.jpeg'
p37
sg11
S'images/17776_6dpf_MeanImageOf5Fish16bit.tif'
p38
ssS'17768'
p39
(dp40
g3
g39
sg4
S'images/17768_6dpf_MeanImageOf9Fish.tif'
p41
sg6
(lp42
S'Brain'
p43
aS'Diencephalon'
p44
aS'Diencephalon-Habenula'
p45
aS'Rhombencephalon'
p46
aS'Rhombencephalon-Olig2 enriched areas in cerebellum'
p47
aS'Rhombencephalon-Cerbellum'
p48
aS'Ganglia-Anterior Lateral Line Ganglia'
p49
aS'Ganglia-Vagal Ganglia'
p50
asg9
S'images/MAX_17768_6dpf_MeanImageOf9Fish.jpeg'
p51
sg11
S'images/17768_6dpf_MeanImageOf9Fish16bit.tif'
p52
ssS'17787'
p53
(dp54
g3
g53
sg4
S'images/17787_6dpf_MeanImageOf9Fish.tif'
p55
sg6
(lp56
S'Brain'
p57
asg9
S'images/MAX_17787_6dpf_MeanImageOf9Fish.jpeg'
p58
sg11
S'images/17787_6dpf_MeanImageOf9Fish16bit.tif'
p59
ssS'20552'
p60
(dp61
g3
g60
sg4
S'images/20552_6dpf_MeanImageOf11Fish.tif'
p62
sg6
(lp63
S'Brain'
p64
asg9
S'images/MAX_20552_6dpf_MeanImageOf11Fish.jpeg'
p65
sg11
S'images/20552_6dpf_MeanImageOf11Fish16bit.tif'
p66
ssS'16946'
p67
(dp68
g3
g67
sg4
S'images/16946_6dpf_MeanImageOf5Fish.tif'
p69
sg6
(lp70
S'Brain'
p71
aS'Diencephalon'
p72
aS'Diencephalon-Habenula'
p73
aS'Mesencephalon'
p74
aS'Mesencephalon-Retinal Arborization Field 9 (AF9)'
p75
aS'Rhombencephalon'
p76
aS'Rhombencephalon-Rhombomere 7'
p77
asg9
S'images/MAX_16946_6dpf_MeanImageOf5Fish.jpeg'
p78
sg11
S'images/16946_6dpf_MeanImageOf5Fish16bit.tif'
p79
ssS'17705'
p80
(dp81
g3
g80
sg4
S'images/17705_6dpf_MeanImageOf5Fish.tif'
p82
sg6
(lp83
S'Brain'
p84
asg9
S'images/MAX_17705_6dpf_MeanImageOf5Fish.jpeg'
p85
sg11
S'images/17705_6dpf_MeanImageOf5Fish16bit.tif'
p86
ssS'15577'
p87
(dp88
g3
g87
sg4
S'images/15577_6dpf_MeanImageOf11Fish.tif'
p89
sg6
(lp90
S'Brain'
p91
aS'Rhombencephalon'
p92
aS'Rhombencephalon-X Vagus motorneuron cluster'
p93
aS'Diencephalon'
p94
aS'Mesencephalon'
p95
aS'Ganglia-Lateral Line Neuromast 01'
p96
asg9
S'images/MAX_15577_6dpf_MeanImageOf11Fish.jpeg'
p97
sg11
S'images/15577_6dpf_MeanImageOf11Fish16bit.tif'
p98
ssS'15576'
p99
(dp100
g3
g99
sg4
S'images/15576_6dpf_MeanImageOf7Fish.tif'
p101
sg6
(lp102
S'Brain'
p103
aS'Diencephalon'
p104
aS'Diencephalon-Habenula'
p105
aS'Mesencephalon-Vglut2 cluster 1'
p106
aS'Telencephalon'
p107
aS'Rhombencephalon'
p108
aS'Neuropil Region 5'
p109
aS'6.7FDhcrtR-Gal4 Stripe 1'
p110
asg9
S'images/MAX_15576_6dpf_MeanImageOf7Fish.jpeg'
p111
sg11
S'images/15576_6dpf_MeanImageOf7Fish16bit.tif'
p112
ssS'20654'
p113
(dp114
g3
g113
sg4
S'images/20654_6dpf_MeanImageOf9Fish.tif'
p115
sg6
(lp116
S'Brain'
p117
asg9
S'images/MAX_20654_6dpf_MeanImageOf9Fish.jpeg'
p118
sg11
S'images/20654_6dpf_MeanImageOf9Fish16bit.tif'
p119
ssS'20655'
p120
(dp121
g3
g120
sg4
S'images/20655_6dpf_MeanImageOf14Fish.tif'
p122
sg6
(lp123
S'Brain'
p124
asg9
S'images/MAX_20655_6dpf_MeanImageOf14Fish.jpeg'
p125
sg11
S'images/20655_6dpf_MeanImageOf13Fish16bit.tif'
p126
ssS'20652'
p127
(dp128
g3
g127
sg4
S'images/20652_6dpf_MeanImageOf4Fish.tif'
p129
sg6
(lp130
S'Brain'
p131
asg9
S'images/MAX_20652_6dpf_MeanImageOf4Fish.jpeg'
p132
sg11
S'images/20652_6dpf_MeanImageOf4Fish16bit.tif'
p133
ssS'20653'
p134
(dp135
g3
g134
sg4
S'images/20653_6dpf_MeanImageOf12Fish.tif'
p136
sg6
(lp137
S'Brain'
p138
asg9
S'images/MAX_20653_6dpf_MeanImageOf12Fish.jpeg'
p139
sg11
S'images/20653_6dpf_MeanImageOf12Fish16bit.tif'
p140
ssS'17767'
p141
(dp142
g3
g141
sg4
S'images/17767_6dpf_MeanImageOf9Fish.tif'
p143
sg6
(lp144
S'Brain'
p145
asg9
S'images/MAX_17767_6dpf_MeanImageOf9Fish.jpeg'
p146
sg11
S'images/17767_6dpf_MeanImageOf9Fish16bit.tif'
p147
ssS'17845'
p148
(dp149
g3
g148
sg4
S'images/17845_6dpf_MeanImageOf13Fish.tif'
p150
sg6
(lp151
S'Brain'
p152
aS'Diencephalon'
p153
aS'Diencephalon-Habenula'
p154
aS'Rhombencephalon'
p155
asg9
S'images/MAX_17845_6dpf_MeanImageOf13Fish.jpeg'
p156
sg11
S'images/17845_6dpf_MeanImageOf13Fish16bit.tif'
p157
ssS'17846'
p158
(dp159
g3
g158
sg4
S'images/17846_6dpf_MeanImageOf5Fish.tif'
p160
sg6
(lp161
S'Brain'
p162
aS'Diencephalon'
p163
aS'Diencephalon-Habenula'
p164
aS'Mesencephalon'
p165
asg9
S'images/MAX_17846_6dpf_MeanImageOf5Fish.jpeg'
p166
sg11
S'images/17846_6dpf_MeanImageOf5Fish16bit.tif'
p167
ssS'20640'
p168
(dp169
g3
g168
sg4
S'images/20640_6dpf_MeanImageOf9Fish.tif'
p170
sg6
(lp171
S'Brain'
p172
asg9
S'images/MAX_20640_6dpf_MeanImageOf9Fish.jpeg'
p173
sg11
S'images/20640_6dpf_MeanImageOf9Fish16bit.tif'
p174
ssS'19322'
p175
(dp176
g3
g175
sg4
S'images/19322_6dpf_MeanImageOf9Fish.tif'
p177
sg6
(lp178
S'Brain'
p179
asg9
S'images/MAX_19322_6dpf_MeanImageOf9Fish.jpeg'
p180
sg11
S'images/19322_6dpf_MeanImageOf9Fish16bit.tif'
p181
ssS'20643'
p182
(dp183
g3
g182
sg4
S'images/20643_6dpf_MeanImageOf12Fish.tif'
p184
sg6
(lp185
S'Brain'
p186
asg9
S'images/MAX_20643_6dpf_MeanImageOf12Fish.jpeg'
p187
sg11
S'images/20643_6dpf_MeanImageOf12Fish16bit.tif'
p188
ssS'20646'
p189
(dp190
g3
g189
sg4
S'images/20646_6dpf_MeanImageOf2Fish.tif'
p191
sg6
(lp192
S'Brain'
p193
asg9
S'images/MAX_20646_6dpf_MeanImageOf2Fish.jpeg'
p194
sg11
S'images/20646_6dpf_MeanImageOf2Fish16bit.tif'
p195
ssS'17777'
p196
(dp197
g3
g196
sg4
S'images/17777_6dpf_MeanImageOf7Fish.tif'
p198
sg6
(lp199
S'Brain'
p200
aS'Ganglia-Posterior Lateral Line Ganglia'
p201
aS'Ganglia-Lateral Line Neuromast N'
p202
aS'Ganglia-Anterior Lateral Line Ganglia'
p203
aS'Diencephalon-Habenula'
p204
aS'Mesencephalon'
p205
asg9
S'images/MAX_17777_6dpf_MeanImageOf7Fish.jpeg'
p206
sg11
S'images/17777_6dpf_MeanImageOf7Fish16bit.tif'
p207
ssS'15639'
p208
(dp209
g3
g208
sg4
S'images/15639_6dpf_MeanImageOf4Fish.tif'
p210
sg6
(lp211
S'Brain'
p212
aS'Diencephalon-Habenula'
p213
asg9
S'images/MAX_15639_6dpf_MeanImageOf4Fish.jpeg'
p214
sg11
S'images/15639_6dpf_MeanImageOf4Fish16bit.tif'
p215
ssS'20454'
p216
(dp217
g3
g216
sg4
S'images/20454_6dpf_MeanImageOf9Fish.tif'
p218
sg6
(lp219
S'Brain'
p220
asg9
S'images/MAX_20454_6dpf_MeanImageOf9Fish.jpeg'
p221
sg11
S'images/20454_6dpf_MeanImageOf9Fish16bit.tif'
p222
ssS'16659'
p223
(dp224
g3
g223
sg4
S'images/16659_6dpf_MeanImageOf6Fish.tif'
p225
sg6
(lp226
S'Brain'
p227
aS'Ganglia-Posterior Lateral Line Ganglia'
p228
aS'Diencephalon'
p229
aS'Diencephalon-Habenula'
p230
aS'Rhombencephalon-Neuropil Region 4'
p231
aS'Rhombencephalon-Interpeduncular Nucleus'
p232
asg9
S'images/MAX_16659_6dpf_MeanImageOf6Fish.jpeg'
p233
sg11
S'images/16659_6dpf_MeanImageOf6Fish16bit.tif'
p234
ssS'20940'
p235
(dp236
g3
g235
sg4
S'images/20940_6dpf_MeanImageOf9Fish.tif'
p237
sg6
(lp238
S'Brain'
p239
asg9
S'images/MAX_20940_6dpf_MeanImageOf9Fish.jpeg'
p240
sg11
S'images/20940_6dpf_MeanImageOf9Fish16bit.tif'
p241
ssS'20941'
p242
(dp243
g3
g242
sg4
S'images/20941_6dpf_MeanImageOf9Fish.tif'
p244
sg6
(lp245
S'Brain'
p246
asg9
S'images/MAX_20941_6dpf_MeanImageOf9Fish.jpeg'
p247
sg11
S'images/20941_6dpf_MeanImageOf9Fish16bit.tif'
p248
ssS'15635'
p249
(dp250
g3
g249
sg4
S'images/15635_6dpf_MeanImageOf5Fish.tif'
p251
sg6
(lp252
S'Brain'
p253
aS'Telencephalon-Subpallium'
p254
aS'Telencephalon-Subpallial Dopaminergic Cluster'
p255
aS'Diencephalon-Dorsal Thalamus'
p256
aS'Mesencephalon-Tectal Neuropil'
p257
aS'Ganglia-Eyes'
p258
aS'Ganglia-Trigemina'
p259
asg9
S'images/MAX_15635_6dpf_MeanImageOf5Fish.jpeg'
p260
sg11
S'images/15635_6dpf_MeanImageOf5Fish16bit.tif'
p261
ssS'17056'
p262
(dp263
g3
g262
sg4
S'images/17056_6dpf_MeanImageOf5Fish.tif'
p264
sg6
(lp265
S'Brain'
p266
aS'Telencephalon'
p267
aS'Telencephalon-Subpallium'
p268
aS'Rhombencephalon-Interpeduncular Nucleus'
p269
aS'Ganglia-Olfactory Epithelium'
p270
aS'Ganglia-Anterior Lateral Line Ganglia'
p271
aS'Mesencephalon'
p272
asg9
S'images/MAX_17056_6dpf_MeanImageOf5Fish.jpeg'
p273
sg11
S'images/17056_6dpf_MeanImageOf5Fish16bit.tif'
p274
ssS'18107'
p275
(dp276
g3
g275
sg4
S'images/18107_6dpf_MeanImageOf10Fish.tif'
p277
sg6
(lp278
S'Brain'
p279
aS'Diencephalon'
p280
aS'Diencephalon-Posterior Tuberculum'
p281
aS'Mesencephalon'
p282
aS'Mesencephalon-Tegmentum'
p283
aS'Mesencephalon-Vglut2 cluster 1'
p284
aS'Telencephalon-Subpallium'
p285
aS'Rhombencephalon'
p286
aS'Rhombencephalon-Rhombomere 7'
p287
asg9
S'images/MAX_18107_6dpf_MeanImageOf10Fish.jpeg'
p288
sg11
S'images/18107_6dpf_MeanImageOf10Fish16bit.tif'
p289
ssS'20360'
p290
(dp291
g3
g290
sg4
S'images/20360_6dpf_MeanImageOf4Fish.tif'
p292
sg6
(lp293
S'Brain'
p294
asg9
S'images/MAX_20360_6dpf_MeanImageOf4Fish.jpeg'
p295
sg11
S'images/20360_6dpf_MeanImageOf4Fish16bit.tif'
p296
ssS'14084'
p297
(dp298
g3
g297
sg4
S'images/14084_6dpf_MeanImageOf36Fish.tif'
p299
sg6
(lp300
S'Brain'
p301
aS'Posterior Lateral Line Ganglion'
p302
aS'Anterior Lateral Line Ganglion'
p303
aS'Vagal Ganglia'
p304
aS'Rhombencephalon-Neuropil Region 4'
p305
aS'Rhombencephalon-Interpeduncular Nucleus'
p306
aS'Diencephalon-Habenula'
p307
asg9
S'images/MAX_14084_6dpf_MeanImageOf36Fish.jpeg'
p308
sg11
S'images/14084_6dpf_MeanImageOf36Fish16bit.tif'
p309
ssS'14085'
p310
(dp311
g3
g310
sg4
S'images/14085_6dpf_MeanImageOf37Fish.tif'
p312
sg6
(lp313
S'Brain'
p314
aS'Ganglia-Olfactory Epithelium'
p315
aS'Telencephalon'
p316
aS'Telencephalon-Olfactory Bulb'
p317
aS'Mesencephalon-Tectum Stratum Periventriculare'
p318
aS'Mesencephalon-Vglut2 cluster 1'
p319
aS'Mesencephalon-Tegmentum'
p320
aS'Diencephalon-Pretectum'
p321
asg9
S'images/MAX_14085_6dpf_MeanImageOf37Fish.jpeg'
p322
sg11
S'images/14085_6dpf_MeanImageOf37Fish16bit.tif'
p323
ssS'14086'
p324
(dp325
g3
g324
sg4
S'images/14086_6dpf_MeanImageOf5Fish.tif'
p326
sg6
(lp327
S'Brain'
p328
aS'Ganglia-Vagal Ganglia'
p329
aS'Ganglia-Anterior Lateral Line Ganglia'
p330
aS'Ganglia-Statoacoustic Ganglia'
p331
aS'Diencephalon-Habenula'
p332
aS'Rhombencephalon'
p333
aS'Neuropil Region 4'
p334
asg9
S'images/MAX_14086_6dpf_MeanImageOf5Fish.jpeg'
p335
sg11
S'images/14086_6dpf_MeanImageOf5Fish16bit.tif'
p336
ssS'14087'
p337
(dp338
g3
g337
sg4
S'images/14087_6dpf_MeanImageOf5Fish.tif'
p339
sg6
(lp340
S'Brain'
p341
aS'Diencephalon-Habenula'
p342
aS'Rhombencephalon'
p343
aS'Neuropil Region 4'
p344
aS'Ganglia-Posterior Lateral Line Ganglia'
p345
asg9
S'images/MAX_14087_6dpf_MeanImageOf5Fish.jpeg'
p346
sg11
S'images/14087_6dpf_MeanImageOf5Fish16bit.tif'
p347
ssS'20663'
p348
(dp349
g3
g348
sg4
S'images/20663_6dpf_MeanImageOf9Fish.tif'
p350
sg6
(lp351
S'Brain'
p352
asg9
S'images/MAX_20663_6dpf_MeanImageOf9Fish.jpeg'
p353
sg11
S'images/20663_6dpf_MeanImageOf9Fish16bit.tif'
p354
ssS'20644'
p355
(dp356
g3
g355
sg4
S'images/20644_6dpf_MeanImageOf8Fish.tif'
p357
sg6
(lp358
S'Brain'
p359
asg9
S'images/MAX_20644_6dpf_MeanImageOf8Fish.jpeg'
p360
sg11
S'images/20644_6dpf_MeanImageOf8Fish16bit.tif'
p361
ssS'20647'
p362
(dp363
g3
g362
sg4
S'images/20647_6dpf_MeanImageOf13Fish.tif'
p364
sg6
(lp365
S'Brain'
p366
asg9
S'images/MAX_20647_6dpf_MeanImageOf13Fish.jpeg'
p367
sg11
S'images/20647_6dpf_MeanImageOf13Fish16bit.tif'
p368
ssS'16715'
p369
(dp370
g3
g369
sg4
S'images/16715_6dpf_MeanImageOf8Fish.tif'
p371
sg6
(lp372
S'Brain'
p373
aS'Diencephalon'
p374
aS'Diencephalon-Habenula'
p375
aS'Rhombencephalon-Neuropil Region 4'
p376
aS'Rhombencephalon-Interpeduncular Nucleus'
p377
aS'Mesencephalon'
p378
asg9
S'images/MAX_16715_6dpf_MeanImageOf8Fish.jpeg'
p379
sg11
S'images/16715_6dpf_MeanImageOf8Fish16bit.tif'
p380
ssS'20641'
p381
(dp382
g3
g381
sg4
S'images/20641_6dpf_MeanImageOf9Fish.tif'
p383
sg6
(lp384
S'Brain'
p385
asg9
S'images/MAX_20641_6dpf_MeanImageOf9Fish.jpeg'
p386
sg11
S'images/20641_6dpf_MeanImageOf9Fish16bit.tif'
p387
ssS'18108'
p388
(dp389
g3
g388
sg4
S'images/18108_6dpf_MeanImageOf8Fish.tif'
p390
sg6
(lp391
S'Brain'
p392
aS'Telencephalon'
p393
aS'Telencephalon-Olfactory Bulb'
p394
aS'Ganglia-Posterior Lateral Line Ganglia'
p395
aS'Rhombencephalon'
p396
aS'Rhombencephalon-Neuropil Region 4'
p397
aS'Rhombencephalon-Gad1b Stripe 3'
p398
aS'Mesencephalon'
p399
aS'Mesencephalon-Torus Semicircularis'
p400
asg9
S'images/MAX_18108_6dpf_MeanImageOf8Fish.jpeg'
p401
sg11
S'images/18108_6dpf_MeanImageOf8Fish16bit.tif'
p402
ssS'18327'
p403
(dp404
g3
g403
sg4
S'images/18327_6dpf_MeanImageOf11Fish.tif'
p405
sg6
(lp406
S'Brain'
p407
aS'Diencephalon'
p408
aS'Diencephalon-Right Habenula Vglut2 cluster'
p409
aS'Diencephalon-Posterior Tuberculum'
p410
aS'Diencephalon-Medial vglut2 cluster'
p411
aS'Rhombencephalon'
p412
aS'Rhombencephalon-RoM2'
p413
aS'Rhombencephalon-Olig2 enriched areas in cerebellum'
p414
asg9
S'images/MAX_18327_6dpf_MeanImageOf11Fish.jpeg'
p415
sg11
S'images/18327_6dpf_MeanImageOf11Fish16bit.tif'
p416
ssS'20642'
p417
(dp418
g3
g417
sg4
S'images/20642_6dpf_MeanImageOf1Fish.tif'
p419
sg6
(lp420
S'Brain'
p421
asg9
S'images/MAX_20642_6dpf_MeanImageOf1Fish.jpeg'
p422
sg11
S'images/20642_6dpf_MeanImageOf1Fish16bit.tif'
p423
ssS'16936'
p424
(dp425
g3
g424
sg4
S'images/16936_6dpf_MeanImageOf11Fish.tif'
p426
sg6
(lp427
S'Brain'
p428
aS'Rhombencephalon-Gad1b Cluster 1'
p429
aS'Rhombencephalon-Neuropil Region 4'
p430
aS'Diencephalon-Habenula'
p431
aS'Diencephalon-Left Habenula Vglut2 cluster'
p432
aS'Mesencephalon'
p433
asg9
S'images/MAX_16936_6dpf_MeanImageOf11Fish.jpeg'
p434
sg11
S'images/16936_6dpf_MeanImageOf11Fish16bit.tif'
p435
ssS'18329'
p436
(dp437
g3
g436
sg4
S'images/18329_6dpf_MeanImageOf9Fish.tif'
p438
sg6
(lp439
S'Brain'
p440
aS'Ganglia-Vagal Ganglia'
p441
aS'Ganglia-Anterior Lateral Line Ganglia'
p442
aS'Diencephalon'
p443
aS'Diencephalon-Habenula'
p444
aS'Rhombencephalon'
p445
aS'Rhombencephalon-Neuropil Region 2'
p446
asg9
S'images/MAX_18329_6dpf_MeanImageOf9Fish.jpeg'
p447
sg11
S'images/18329_6dpf_MeanImageOf9Fish16bit.tif'
p448
ssS'13319'
p449
(dp450
g3
g449
sg4
S'images/13319_6dpf_MeanImageOf10Fish.tif'
p451
sg6
(lp452
S'Brain'
p453
aS'Anterior Lateral Line Ganglion'
p454
aS'Diencephalon-Habenula'
p455
aS'Diencephalon'
p456
aS'Diencephalon-Anterior Pretectum Cluster of Vmat2 Neurons'
p457
asg9
S'images/MAX_13319_6dpf_MeanImageOf10Fish.jpeg'
p458
sg11
S'images/13319_6dpf_MeanImageOf10Fish16bit.tif'
p459
ssS'16914'
p460
(dp461
g3
g460
sg4
S'images/16914_6dpf_MeanImageOf7Fish.tif'
p462
sg6
(lp463
S'Brain'
p464
aS'Rhombencephalon'
p465
aS'Rhombencephalon-Neuropil Region 4'
p466
aS'Ganglia-Anterior Lateral Line Ganglia'
p467
aS'Ganglia-Posterior Lateral Line Ganglia'
p468
aS'Ganglia-Olfactory Epithelium'
p469
aS'Rhombencephalon-Rhombomere 1'
p470
aS'Diencephalon'
p471
aS'Telencephalon'
p472
aS'Telencephalon-Subpallial Otpb Cluster 2'
p473
aS'Telencephalon-Olfactory Bulb'
p474
asg9
S'images/MAX_16914_6dpf_MeanImageOf7Fish.jpeg'
p475
sg11
S'images/16914_6dpf_MeanImageOf7Fish16bit.tif'
p476
ssS'16915'
p477
(dp478
g3
g477
sg4
S'images/16915_6dpf_MeanImageOf3Fish.tif'
p479
sg6
(lp480
S'Brain'
p481
aS'Ganglia-Anterior Lateral Line Ganglia'
p482
aS'Diencephalon'
p483
aS'Diencephalon-Habenula'
p484
aS'Rhombencephalon'
p485
aS'Rhombencephalon-Interpeduncular Nucleus'
p486
asg9
S'images/MAX_16915_6dpf_MeanImageOf3Fish.jpeg'
p487
sg11
S'images/16915_6dpf_MeanImageOf3Fish16bit.tif'
p488
ssS'14543'
p489
(dp490
g3
g489
sg4
S'images/14543_6dpf_MeanImageOf10Fish.tif'
p491
sg6
(lp492
S'Brain'
p493
aS'Mesencephalon-Tegmentum'
p494
aS'Diancephalon-Habenula'
p495
aS'Rhombencephalon-Rhombhomere 7'
p496
asg9
S'images/MAX_14543_6dpf_MeanImageOf10Fish.jpeg'
p497
sg11
S'images/14543_6dpf_MeanImageOf10Fish16bit.tif'
p498
ssS'20361'
p499
(dp500
g3
g499
sg4
S'images/20361_6dpf_MeanImageOf10Fish.tif'
p501
sg6
(lp502
S'Brain'
p503
asg9
S'images/MAX_20361_6dpf_MeanImageOf10Fish.jpeg'
p504
sg11
S'images/20361_6dpf_MeanImageOf10Fish16bit.tif'
p505
ssS'20660'
p506
(dp507
g3
g506
sg4
S'images/20660_6dpf_MeanImageOf6Fish.tif'
p508
sg6
(lp509
S'Brain'
p510
asg9
S'images/MAX_20660_6dpf_MeanImageOf6Fish.jpeg'
p511
sg11
S'images/20660_6dpf_MeanImageOf6Fish16bit.tif'
p512
ssS'16913'
p513
(dp514
g3
g513
sg4
S'images/16913_6dpf_MeanImageOf4Fish.tif'
p515
sg6
(lp516
S'Brain'
p517
aS'Mesencephalon'
p518
aS'Mesencephalon-Torus Semicircularis'
p519
aS'Rhombencephalon'
p520
aS'Rhombencephalon-Rhombomere 2'
p521
aS'Rhombencephalon-VII Facial Motor and octavolateralis efferent neurons'
p522
aS'Rhombencephalon-Vglut2 Stripe 4'
p523
aS'Diencephalon'
p524
aS'Diencephalon-Ventral Thalamus'
p525
asg9
S'images/MAX_16913_6dpf_MeanImageOf4Fish.jpeg'
p526
sg11
S'images/16913_6dpf_MeanImageOf4Fish16bit.tif'
p527
ssS'19564'
p528
(dp529
g3
g528
sg4
S'images/19564_6dpf_MeanImageOf7Fish.tif'
p530
sg6
(lp531
S'Brain'
p532
aS'Vasculature '
p533
asg9
S'images/MAX_19564_6dpf_MeanImageOf7Fish.jpeg'
p534
sg11
S'images/19564_6dpf_MeanImageOf7Fish16bit.tif'
p535
ssS'19566'
p536
(dp537
g3
g536
sg4
S'images/19566_6dpf_MeanImageOf10Fish.tif'
p538
sg6
(lp539
S'Brain'
p540
asg9
S'images/MAX_19566_6dpf_MeanImageOf10Fish.jpeg'
p541
sg11
S'images/19566_6dpf_MeanImageOf10Fish16bit.tif'
p542
ssS'20649'
p543
(dp544
g3
g543
sg4
S'images/20649_6dpf_MeanImageOf2Fish.tif'
p545
sg6
(lp546
S'Brain'
p547
asg9
S'images/MAX_20649_6dpf_MeanImageOf2Fish.jpeg'
p548
sg11
S'images/20649_6dpf_MeanImageOf2Fish16bit.tif'
p549
ssS'20661'
p550
(dp551
g3
g550
sg4
S'images/20661_6dpf_MeanImageOf7Fish.tif'
p552
sg6
(lp553
S'Brain'
p554
asg9
S'images/MAX_20661_6dpf_MeanImageOf7Fish.jpeg'
p555
sg11
S'images/20661_6dpf_MeanImageOf7Fish16bit.tif'
p556
ssS'16916'
p557
(dp558
g3
g557
sg4
S'images/16916_6dpf_MeanImageOf7Fish.tif'
p559
sg6
(lp560
S'Brain'
p561
aS'Ganglia-Posterior Lateral Line Ganglia'
p562
aS'Ganglia-Anterior Lateral Line Ganglia'
p563
aS'Diencephalon-Habenula'
p564
aS'Rhombencephalon'
p565
aS'Rhombencephalon-Interpeduncular Nucleus'
p566
asg9
S'images/MAX_16916_6dpf_MeanImageOf7Fish.jpeg'
p567
sg11
S'images/16916_6dpf_MeanImageOf7Fish16bit.tif'
p568
ssS'20648'
p569
(dp570
g3
g569
sg4
S'images/20648_6dpf_MeanImageOf1Fish.tif'
p571
sg6
(lp572
S'Brain'
p573
asg9
S'images/MAX_20648_6dpf_MeanImageOf1Fish.jpeg'
p574
sg11
S'images/20648_6dpf_MeanImageOf1Fish16bit.tif'
p575
ss.